---
triple:          'arm64-apple-darwin'
binary-path:     '/Users/kshitiz/Documents/GitHub/Programming/Cpp/output/TextEditor'
relocations:
  - { offsetInCU: 0x46F6, offset: 0x46F6, size: 0x8, addend: 0x0, symName: __ZNSt3__16copy_nB7v160006IPKcmPcEENS_9enable_ifIXsr33__is_cpp17_random_access_iteratorIT_EE5valueET1_E4typeES5_T0_S6_, symObjAddr: 0x60D4, symBinAddr: 0x100009A54, symSize: 0x44 }
  - { offsetInCU: 0x4D14, offset: 0x4D14, size: 0x8, addend: 0x0, symName: __ZNSt3__124__put_character_sequenceB7v160006IcNS_11char_traitsIcEEEERNS_13basic_ostreamIT_T0_EES7_PKS4_m, symObjAddr: 0x72C8, symBinAddr: 0x10000AC48, symSize: 0x1F4 }
  - { offsetInCU: 0x769F, offset: 0x769F, size: 0x8, addend: 0x0, symName: __ZNSt3__1rsB7v160006IcNS_11char_traitsIcEENS_9allocatorIcEEEERNS_13basic_istreamIT_T0_EES9_RNS_12basic_stringIS6_S7_T1_EE, symObjAddr: 0x2B8, symBinAddr: 0x100003C38, symSize: 0x324 }
  - { offsetInCU: 0x776E, offset: 0x776E, size: 0x8, addend: 0x0, symName: __ZNSt3__1lsB7v160006INS_11char_traitsIcEEEERNS_13basic_ostreamIcT_EES6_c, symObjAddr: 0x81C, symBinAddr: 0x10000419C, symSize: 0x34 }
  - { offsetInCU: 0x77B4, offset: 0x77B4, size: 0x8, addend: 0x0, symName: __ZNSt3__14endlB7v160006IcNS_11char_traitsIcEEEERNS_13basic_ostreamIT_T0_EES7_, symObjAddr: 0x8B8, symBinAddr: 0x100004238, symSize: 0x58 }
  - { offsetInCU: 0x77F4, offset: 0x77F4, size: 0x8, addend: 0x0, symName: __ZNSt3__112__to_addressB7v160006IPNS_4pairIiNS_12basic_stringIcNS_11char_traitsIcEENS_9allocatorIcEEEEEEEEPT_SB_, symObjAddr: 0x10B8, symBinAddr: 0x100004A38, symSize: 0x14 }
  - { offsetInCU: 0x7829, offset: 0x7829, size: 0x8, addend: 0x0, symName: __ZNSt3__130__libcpp_is_constant_evaluatedB7v160006Ev, symObjAddr: 0x1150, symBinAddr: 0x100004AD0, symSize: 0xC }
  - { offsetInCU: 0x7846, offset: 0x7846, size: 0x8, addend: 0x0, symName: __ZNSt3__119__libcpp_deallocateB7v160006EPvmm, symObjAddr: 0x115C, symBinAddr: 0x100004ADC, symSize: 0x30 }
  - { offsetInCU: 0x788E, offset: 0x788E, size: 0x8, addend: 0x0, symName: __ZNSt3__127__do_deallocate_handle_sizeB7v160006IJEEEvPvmDpT_, symObjAddr: 0x118C, symBinAddr: 0x100004B0C, symSize: 0x28 }
  - { offsetInCU: 0x78CC, offset: 0x78CC, size: 0x8, addend: 0x0, symName: __ZNSt3__124__libcpp_operator_deleteB7v160006IJPvEEEvDpT_, symObjAddr: 0x11B4, symBinAddr: 0x100004B34, symSize: 0x24 }
  - { offsetInCU: 0x7941, offset: 0x7941, size: 0x8, addend: 0x0, symName: __ZNSt3__19make_pairB7v160006IiRKNS_12basic_stringIcNS_11char_traitsIcEENS_9allocatorIcEEEEEENS_4pairINS_18__unwrap_ref_decayIT_E4typeENSA_IT0_E4typeEEEOSB_OSE_, symObjAddr: 0x15D0, symBinAddr: 0x100004F50, symSize: 0x40 }
  - { offsetInCU: 0x7990, offset: 0x7990, size: 0x8, addend: 0x0, symName: __ZNSt3__1miB7v160006IPKcPcEENS_11__wrap_iterIT_E15difference_typeERKS6_RKNS4_IT0_EE, symObjAddr: 0x163C, symBinAddr: 0x100004FBC, symSize: 0x40 }
  - { offsetInCU: 0x79DC, offset: 0x79DC, size: 0x8, addend: 0x0, symName: __ZNSt3__18distanceB7v160006INS_11__wrap_iterIPKcEEEENS_15iterator_traitsIT_E15difference_typeES6_S6_, symObjAddr: 0x167C, symBinAddr: 0x100004FFC, symSize: 0x3C }
  - { offsetInCU: 0x7A1F, offset: 0x7A1F, size: 0x8, addend: 0x0, symName: __ZNSt3__110__distanceB7v160006INS_11__wrap_iterIPKcEEEENS_15iterator_traitsIT_E15difference_typeES6_S6_NS_26random_access_iterator_tagE, symObjAddr: 0x1A40, symBinAddr: 0x1000053C0, symSize: 0x30 }
  - { offsetInCU: 0x7A6C, offset: 0x7A6C, size: 0x8, addend: 0x0, symName: __ZNSt3__1miB7v160006IPKcS2_EENS_11__wrap_iterIT_E15difference_typeERKS5_RKNS3_IT0_EE, symObjAddr: 0x1A70, symBinAddr: 0x1000053F0, symSize: 0x40 }
  - { offsetInCU: 0x7AB8, offset: 0x7AB8, size: 0x8, addend: 0x0, symName: __ZNSt3__112__to_addressB7v160006IKcEEPT_S3_, symObjAddr: 0x1B54, symBinAddr: 0x1000054D4, symSize: 0x14 }
  - { offsetInCU: 0x7B20, offset: 0x7B20, size: 0x8, addend: 0x0, symName: __ZNSt3__112__to_addressB7v160006IcEEPT_S2_, symObjAddr: 0x1D7C, symBinAddr: 0x1000056FC, symSize: 0x14 }
  - { offsetInCU: 0x7B55, offset: 0x7B55, size: 0x8, addend: 0x0, symName: __ZNSt3__1neB7v160006IPKcEEbRKNS_11__wrap_iterIT_EES7_, symObjAddr: 0x1EB8, symBinAddr: 0x100005838, symSize: 0x34 }
  - { offsetInCU: 0x7BCB, offset: 0x7BCB, size: 0x8, addend: 0x0, symName: __ZNSt3__1L18__char_traits_moveB7v160006IcEEPT_S2_PKS1_m, symObjAddr: 0x1FB0, symBinAddr: 0x100005930, symSize: 0x3C }
  - { offsetInCU: 0x7C1C, offset: 0x7C1C, size: 0x8, addend: 0x0, symName: __ZNSt3__1eqB7v160006IPKcEEbRKNS_11__wrap_iterIT_EES7_, symObjAddr: 0x209C, symBinAddr: 0x100005A1C, symSize: 0x48 }
  - { offsetInCU: 0x7C5F, offset: 0x7C5F, size: 0x8, addend: 0x0, symName: __ZNSt3__119__debug_db_insert_cB7v160006INS_12basic_stringIcNS_11char_traitsIcEENS_9allocatorIcEEEEEEvPT_, symObjAddr: 0x2364, symBinAddr: 0x100005CE4, symSize: 0x10 }
  - { offsetInCU: 0x7C90, offset: 0x7C90, size: 0x8, addend: 0x0, symName: __ZNSt3__119__allocate_at_leastB7v160006INS_9allocatorIcEEEENS_19__allocation_resultINS_16allocator_traitsIT_E7pointerEEERS5_m, symObjAddr: 0x24F4, symBinAddr: 0x100005E74, symSize: 0x40 }
  - { offsetInCU: 0x7ED5, offset: 0x7ED5, size: 0x8, addend: 0x0, symName: __ZNSt3__120__throw_length_errorB7v160006EPKc, symObjAddr: 0x273C, symBinAddr: 0x1000060BC, symSize: 0x64 }
  - { offsetInCU: 0x7EFD, offset: 0x7EFD, size: 0x8, addend: 0x0, symName: __ZNSt3__117__libcpp_allocateB7v160006Emm, symObjAddr: 0x28D8, symBinAddr: 0x100006258, symSize: 0x28 }
  - { offsetInCU: 0x7F3A, offset: 0x7F3A, size: 0x8, addend: 0x0, symName: __ZNSt3__121__libcpp_operator_newB7v160006IJmEEEPvDpT_, symObjAddr: 0x2900, symBinAddr: 0x100006280, symSize: 0x24 }
  - { offsetInCU: 0x7F73, offset: 0x7F73, size: 0x8, addend: 0x0, symName: __ZNSt3__13maxB7v160006ImEERKT_S3_S3_, symObjAddr: 0x39A0, symBinAddr: 0x100007320, symSize: 0x2C }
  - { offsetInCU: 0x843F, offset: 0x843F, size: 0x8, addend: 0x0, symName: __ZNSt3__14swapB7v160006IPPNS_4pairIiNS_12basic_stringIcNS_11char_traitsIcEENS_9allocatorIcEEEEEEEEvRT_SC_, symObjAddr: 0x4000, symBinAddr: 0x100007980, symSize: 0x3C }
  - { offsetInCU: 0x8490, offset: 0x8490, size: 0x8, addend: 0x0, symName: __ZNSt3__14moveB7v160006IPPNS_4pairIiNS_12basic_stringIcNS_11char_traitsIcEENS_9allocatorIcEEEEEESA_EET0_T_SC_SB_, symObjAddr: 0x4130, symBinAddr: 0x100007AB0, symSize: 0x40 }
  - { offsetInCU: 0x84EA, offset: 0x84EA, size: 0x8, addend: 0x0, symName: __ZNSt3__16__moveB7v160006INS_17_ClassicAlgPolicyEPPNS_4pairIiNS_12basic_stringIcNS_11char_traitsIcEENS_9allocatorIcEEEEEESB_SB_EENS2_IT0_T2_EESC_T1_SD_, symObjAddr: 0x42DC, symBinAddr: 0x100007C5C, symSize: 0x44 }
  - { offsetInCU: 0x8556, offset: 0x8556, size: 0x8, addend: 0x0, symName: __ZNSt3__123__dispatch_copy_or_moveB7v160006INS_17_ClassicAlgPolicyENS_11__move_loopIS1_EENS_14__move_trivialEPPNS_4pairIiNS_12basic_stringIcNS_11char_traitsIcEENS_9allocatorIcEEEEEESE_SE_EENS5_IT2_T4_EESF_T3_SG_, symObjAddr: 0x4320, symBinAddr: 0x100007CA0, symSize: 0x54 }
  - { offsetInCU: 0x85D4, offset: 0x85D4, size: 0x8, addend: 0x0, symName: __ZNSt3__121__unwrap_and_dispatchB7v160006INS_10__overloadINS_11__move_loopINS_17_ClassicAlgPolicyEEENS_14__move_trivialEEEPPNS_4pairIiNS_12basic_stringIcNS_11char_traitsIcEENS_9allocatorIcEEEEEESG_SG_Li0EEENS7_IT0_T2_EESH_T1_SI_, symObjAddr: 0x4374, symBinAddr: 0x100007CF4, symSize: 0xB4 }
  - { offsetInCU: 0x8662, offset: 0x8662, size: 0x8, addend: 0x0, symName: __ZNSt3__114__unwrap_rangeB7v160006IPPNS_4pairIiNS_12basic_stringIcNS_11char_traitsIcEENS_9allocatorIcEEEEEESA_EENS1_IT0_SB_EET_SD_, symObjAddr: 0x4428, symBinAddr: 0x100007DA8, symSize: 0x60 }
  - { offsetInCU: 0x87A1, offset: 0x87A1, size: 0x8, addend: 0x0, symName: __ZNSt3__113__unwrap_iterB7v160006IPPNS_4pairIiNS_12basic_stringIcNS_11char_traitsIcEENS_9allocatorIcEEEEEENS_18__unwrap_iter_implISA_Lb1EEELi0EEEDTclsrT0_8__unwrapclsr3stdE7declvalIT_EEEESE_, symObjAddr: 0x44D0, symBinAddr: 0x100007E50, symSize: 0x24 }
  - { offsetInCU: 0x87E5, offset: 0x87E5, size: 0x8, addend: 0x0, symName: __ZNSt3__19make_pairB7v160006IPPNS_4pairIiNS_12basic_stringIcNS_11char_traitsIcEENS_9allocatorIcEEEEEESA_EENS1_INS_18__unwrap_ref_decayIT_E4typeENSB_IT0_E4typeEEEOSC_OSF_, symObjAddr: 0x44F4, symBinAddr: 0x100007E74, symSize: 0x38 }
  - { offsetInCU: 0x8834, offset: 0x8834, size: 0x8, addend: 0x0, symName: __ZNSt3__114__rewrap_rangeB7v160006IPPNS_4pairIiNS_12basic_stringIcNS_11char_traitsIcEENS_9allocatorIcEEEEEESA_EET_SB_T0_, symObjAddr: 0x452C, symBinAddr: 0x100007EAC, symSize: 0x2C }
  - { offsetInCU: 0x8880, offset: 0x8880, size: 0x8, addend: 0x0, symName: __ZNSt3__113__rewrap_iterB7v160006IPPNS_4pairIiNS_12basic_stringIcNS_11char_traitsIcEENS_9allocatorIcEEEEEESA_NS_18__unwrap_iter_implISA_Lb1EEEEET_SD_T0_, symObjAddr: 0x4558, symBinAddr: 0x100007ED8, symSize: 0x50 }
  - { offsetInCU: 0x88D5, offset: 0x88D5, size: 0x8, addend: 0x0, symName: __ZNSt3__119__copy_trivial_implB7v160006IPNS_4pairIiNS_12basic_stringIcNS_11char_traitsIcEENS_9allocatorIcEEEEEES9_EENS1_IPT_PT0_EESB_SB_SD_, symObjAddr: 0x45A8, symBinAddr: 0x100007F28, symSize: 0x84 }
  - { offsetInCU: 0x893D, offset: 0x893D, size: 0x8, addend: 0x0, symName: __ZNSt3__19make_pairB7v160006IRPPNS_4pairIiNS_12basic_stringIcNS_11char_traitsIcEENS_9allocatorIcEEEEEESA_EENS1_INS_18__unwrap_ref_decayIT_E4typeENSC_IT0_E4typeEEEOSD_OSG_, symObjAddr: 0x462C, symBinAddr: 0x100007FAC, symSize: 0x38 }
  - { offsetInCU: 0x89DF, offset: 0x89DF, size: 0x8, addend: 0x0, symName: __ZNSt3__18distanceB7v160006INS_13move_iteratorIPPNS_4pairIiNS_12basic_stringIcNS_11char_traitsIcEENS_9allocatorIcEEEEEEEEEENS_15iterator_traitsIT_E15difference_typeESE_SE_, symObjAddr: 0x4748, symBinAddr: 0x1000080C8, symSize: 0x3C }
  - { offsetInCU: 0x8A22, offset: 0x8A22, size: 0x8, addend: 0x0, symName: __ZNSt3__110__distanceB7v160006INS_13move_iteratorIPPNS_4pairIiNS_12basic_stringIcNS_11char_traitsIcEENS_9allocatorIcEEEEEEEEEENS_15iterator_traitsIT_E15difference_typeESE_SE_NS_26random_access_iterator_tagE, symObjAddr: 0x4880, symBinAddr: 0x100008200, symSize: 0x30 }
  - { offsetInCU: 0x8A6F, offset: 0x8A6F, size: 0x8, addend: 0x0, symName: __ZNSt3__1miB7v160006IPPNS_4pairIiNS_12basic_stringIcNS_11char_traitsIcEENS_9allocatorIcEEEEEESA_EENS_13move_iteratorIT_E15difference_typeERKSD_RKNSB_IT0_EE, symObjAddr: 0x48B0, symBinAddr: 0x100008230, symSize: 0x48 }
  - { offsetInCU: 0x8ABE, offset: 0x8ABE, size: 0x8, addend: 0x0, symName: __ZNSt3__113move_backwardB7v160006IPPNS_4pairIiNS_12basic_stringIcNS_11char_traitsIcEENS_9allocatorIcEEEEEESA_EET0_T_SC_SB_, symObjAddr: 0x4AE0, symBinAddr: 0x100008460, symSize: 0x40 }
  - { offsetInCU: 0x8B18, offset: 0x8B18, size: 0x8, addend: 0x0, symName: __ZNSt3__115__move_backwardB7v160006INS_17_ClassicAlgPolicyEPPNS_4pairIiNS_12basic_stringIcNS_11char_traitsIcEENS_9allocatorIcEEEEEESB_SB_EENS2_IT0_T2_EESC_T1_SD_, symObjAddr: 0x4B20, symBinAddr: 0x1000084A0, symSize: 0x44 }
  - { offsetInCU: 0x8B84, offset: 0x8B84, size: 0x8, addend: 0x0, symName: __ZNSt3__123__dispatch_copy_or_moveB7v160006INS_17_ClassicAlgPolicyENS_20__move_backward_loopIS1_EENS_23__move_backward_trivialEPPNS_4pairIiNS_12basic_stringIcNS_11char_traitsIcEENS_9allocatorIcEEEEEESE_SE_EENS5_IT2_T4_EESF_T3_SG_, symObjAddr: 0x4B64, symBinAddr: 0x1000084E4, symSize: 0x54 }
  - { offsetInCU: 0x8C02, offset: 0x8C02, size: 0x8, addend: 0x0, symName: __ZNSt3__121__unwrap_and_dispatchB7v160006INS_10__overloadINS_20__move_backward_loopINS_17_ClassicAlgPolicyEEENS_23__move_backward_trivialEEEPPNS_4pairIiNS_12basic_stringIcNS_11char_traitsIcEENS_9allocatorIcEEEEEESG_SG_Li0EEENS7_IT0_T2_EESH_T1_SI_, symObjAddr: 0x4BB8, symBinAddr: 0x100008538, symSize: 0xB4 }
  - { offsetInCU: 0x8CD6, offset: 0x8CD6, size: 0x8, addend: 0x0, symName: __ZNSt3__128__copy_backward_trivial_implB7v160006IPNS_4pairIiNS_12basic_stringIcNS_11char_traitsIcEENS_9allocatorIcEEEEEES9_EENS1_IPT_PT0_EESB_SB_SD_, symObjAddr: 0x4CB4, symBinAddr: 0x100008634, symSize: 0x94 }
  - { offsetInCU: 0x8D3E, offset: 0x8D3E, size: 0x8, addend: 0x0, symName: __ZNSt3__19make_pairB7v160006IRPPNS_4pairIiNS_12basic_stringIcNS_11char_traitsIcEENS_9allocatorIcEEEEEESB_EENS1_INS_18__unwrap_ref_decayIT_E4typeENSC_IT0_E4typeEEEOSD_OSG_, symObjAddr: 0x4D48, symBinAddr: 0x1000086C8, symSize: 0x38 }
  - { offsetInCU: 0x8D8D, offset: 0x8D8D, size: 0x8, addend: 0x0, symName: __ZNSt3__13maxB7v160006ImNS_6__lessImmEEEERKT_S5_S5_T0_, symObjAddr: 0x4D80, symBinAddr: 0x100008700, symSize: 0x54 }
  - { offsetInCU: 0x8E22, offset: 0x8E22, size: 0x8, addend: 0x0, symName: __ZNSt3__119__allocate_at_leastB7v160006INS_9allocatorIPNS_4pairIiNS_12basic_stringIcNS_11char_traitsIcEENS1_IcEEEEEEEEEENS_19__allocation_resultINS_16allocator_traitsIT_E7pointerEEERSD_m, symObjAddr: 0x4F18, symBinAddr: 0x100008898, symSize: 0x40 }
  - { offsetInCU: 0x8E65, offset: 0x8E65, size: 0x8, addend: 0x0, symName: __ZNSt3__19make_pairB7v160006IiRNS_12basic_stringIcNS_11char_traitsIcEENS_9allocatorIcEEEEEENS_4pairINS_18__unwrap_ref_decayIT_E4typeENS9_IT0_E4typeEEEOSA_OSD_, symObjAddr: 0x58DC, symBinAddr: 0x10000925C, symSize: 0x40 }
  - { offsetInCU: 0x8EB4, offset: 0x8EB4, size: 0x8, addend: 0x0, symName: __ZNSt3__1plB7v160006IcNS_11char_traitsIcEENS_9allocatorIcEEEENS_12basic_stringIT_T0_T1_EERKS9_SB_, symObjAddr: 0x5A1C, symBinAddr: 0x10000939C, symSize: 0x134 }
  - { offsetInCU: 0x8F55, offset: 0x8F55, size: 0x8, addend: 0x0, symName: __ZNSt3__112__to_addressB7v160006INS_4pairIiNS_12basic_stringIcNS_11char_traitsIcEENS_9allocatorIcEEEEEEEEPT_SA_, symObjAddr: 0x5CCC, symBinAddr: 0x10000964C, symSize: 0x14 }
  - { offsetInCU: 0x8F8A, offset: 0x8F8A, size: 0x8, addend: 0x0, symName: __ZNSt3__14copyB7v160006IPKcPcEET0_T_S5_S4_, symObjAddr: 0x6118, symBinAddr: 0x100009A98, symSize: 0x40 }
  - { offsetInCU: 0x8FE4, offset: 0x8FE4, size: 0x8, addend: 0x0, symName: __ZNSt3__16__copyB7v160006INS_17_ClassicAlgPolicyEPKcS3_PcEENS_4pairIT0_T2_EES6_T1_S7_, symObjAddr: 0x6158, symBinAddr: 0x100009AD8, symSize: 0x44 }
  - { offsetInCU: 0x9050, offset: 0x9050, size: 0x8, addend: 0x0, symName: __ZNSt3__123__dispatch_copy_or_moveB7v160006INS_17_ClassicAlgPolicyENS_11__copy_loopIS1_EENS_14__copy_trivialEPKcS6_PcEENS_4pairIT2_T4_EES9_T3_SA_, symObjAddr: 0x619C, symBinAddr: 0x100009B1C, symSize: 0x54 }
  - { offsetInCU: 0x90CE, offset: 0x90CE, size: 0x8, addend: 0x0, symName: __ZNSt3__121__unwrap_and_dispatchB7v160006INS_10__overloadINS_11__copy_loopINS_17_ClassicAlgPolicyEEENS_14__copy_trivialEEEPKcS8_PcLi0EEENS_4pairIT0_T2_EESB_T1_SC_, symObjAddr: 0x61F0, symBinAddr: 0x100009B70, symSize: 0xB4 }
  - { offsetInCU: 0x915C, offset: 0x915C, size: 0x8, addend: 0x0, symName: __ZNSt3__114__unwrap_rangeB7v160006IPKcS2_EENS_4pairIT0_S4_EET_S6_, symObjAddr: 0x62A4, symBinAddr: 0x100009C24, symSize: 0x60 }
  - { offsetInCU: 0x929B, offset: 0x929B, size: 0x8, addend: 0x0, symName: __ZNSt3__113__unwrap_iterB7v160006IPcNS_18__unwrap_iter_implIS1_Lb1EEELi0EEEDTclsrT0_8__unwrapclsr3stdE7declvalIT_EEEES5_, symObjAddr: 0x634C, symBinAddr: 0x100009CCC, symSize: 0x24 }
  - { offsetInCU: 0x92DF, offset: 0x92DF, size: 0x8, addend: 0x0, symName: __ZNSt3__19make_pairB7v160006IPKcPcEENS_4pairINS_18__unwrap_ref_decayIT_E4typeENS5_IT0_E4typeEEEOS6_OS9_, symObjAddr: 0x6370, symBinAddr: 0x100009CF0, symSize: 0x38 }
  - { offsetInCU: 0x932E, offset: 0x932E, size: 0x8, addend: 0x0, symName: __ZNSt3__114__rewrap_rangeB7v160006IPKcS2_EET_S3_T0_, symObjAddr: 0x63A8, symBinAddr: 0x100009D28, symSize: 0x2C }
  - { offsetInCU: 0x937A, offset: 0x937A, size: 0x8, addend: 0x0, symName: __ZNSt3__113__rewrap_iterB7v160006IPcS1_NS_18__unwrap_iter_implIS1_Lb1EEEEET_S4_T0_, symObjAddr: 0x63D4, symBinAddr: 0x100009D54, symSize: 0x50 }
  - { offsetInCU: 0x93CF, offset: 0x93CF, size: 0x8, addend: 0x0, symName: __ZNSt3__19make_pairB7v160006IPKcS2_EENS_4pairINS_18__unwrap_ref_decayIT_E4typeENS4_IT0_E4typeEEEOS5_OS8_, symObjAddr: 0x6424, symBinAddr: 0x100009DA4, symSize: 0x38 }
  - { offsetInCU: 0x941E, offset: 0x941E, size: 0x8, addend: 0x0, symName: __ZNSt3__113__unwrap_iterB7v160006IPKcNS_18__unwrap_iter_implIS2_Lb1EEELi0EEEDTclsrT0_8__unwrapclsr3stdE7declvalIT_EEEES6_, symObjAddr: 0x645C, symBinAddr: 0x100009DDC, symSize: 0x24 }
  - { offsetInCU: 0x9562, offset: 0x9562, size: 0x8, addend: 0x0, symName: __ZNSt3__119__copy_trivial_implB7v160006IKccEENS_4pairIPT_PT0_EES4_S4_S6_, symObjAddr: 0x6514, symBinAddr: 0x100009E94, symSize: 0x7C }
  - { offsetInCU: 0x95CA, offset: 0x95CA, size: 0x8, addend: 0x0, symName: __ZNSt3__19make_pairB7v160006IRPKcPcEENS_4pairINS_18__unwrap_ref_decayIT_E4typeENS6_IT0_E4typeEEEOS7_OSA_, symObjAddr: 0x6590, symBinAddr: 0x100009F10, symSize: 0x38 }
  - { offsetInCU: 0x966C, offset: 0x966C, size: 0x8, addend: 0x0, symName: __ZNSt3__113__rewrap_iterB7v160006IPKcS2_NS_18__unwrap_iter_implIS2_Lb1EEEEET_S5_T0_, symObjAddr: 0x665C, symBinAddr: 0x100009FDC, symSize: 0x50 }
  - { offsetInCU: 0x96C1, offset: 0x96C1, size: 0x8, addend: 0x0, symName: __ZNSt3__16fill_nB7v160006IPcmcEET_S2_T0_RKT1_, symObjAddr: 0x673C, symBinAddr: 0x10000A0BC, symSize: 0x44 }
  - { offsetInCU: 0x9724, offset: 0x9724, size: 0x8, addend: 0x0, symName: __ZNSt3__18__fill_nB7v160006IPcmcEET_S2_T0_RKT1_, symObjAddr: 0x6780, symBinAddr: 0x10000A100, symSize: 0x64 }
  - { offsetInCU: 0x9787, offset: 0x9787, size: 0x8, addend: 0x0, symName: __ZNSt3__121__convert_to_integralB7v160006Em, symObjAddr: 0x67E4, symBinAddr: 0x10000A164, symSize: 0x14 }
  - { offsetInCU: 0x97B3, offset: 0x97B3, size: 0x8, addend: 0x0, symName: __ZNSt3__1neB7v160006ERKNS_16__deque_iteratorINS_4pairIiNS_12basic_stringIcNS_11char_traitsIcEENS_9allocatorIcEEEEEEPS8_RS8_PS9_lLl128EEESE_, symObjAddr: 0x6B98, symBinAddr: 0x10000A518, symSize: 0x34 }
  - { offsetInCU: 0x97F0, offset: 0x97F0, size: 0x8, addend: 0x0, symName: __ZNSt3__1eqB7v160006ERKNS_16__deque_iteratorINS_4pairIiNS_12basic_stringIcNS_11char_traitsIcEENS_9allocatorIcEEEEEEPS8_RS8_PS9_lLl128EEESE_, symObjAddr: 0x6C3C, symBinAddr: 0x10000A5BC, symSize: 0x30 }
  - { offsetInCU: 0x9FC3, offset: 0x9FC3, size: 0x8, addend: 0x0, symName: __ZNSt3__19use_facetB7v160006INS_5ctypeIcEEEERKT_RKNS_6localeE, symObjAddr: 0x6EE8, symBinAddr: 0x10000A868, symSize: 0x2C }
  - { offsetInCU: 0xA3A3, offset: 0xA3A3, size: 0x8, addend: 0x0, symName: __ZNSt3__125__debug_db_invalidate_allB7v160006INS_12basic_stringIcNS_11char_traitsIcEENS_9allocatorIcEEEEEEvPT_, symObjAddr: 0x71C4, symBinAddr: 0x10000AB44, symSize: 0x10 }
  - { offsetInCU: 0xA3D4, offset: 0xA3D4, size: 0x8, addend: 0x0, symName: __ZNSt3__116__pad_and_outputB7v160006IcNS_11char_traitsIcEEEENS_19ostreambuf_iteratorIT_T0_EES6_PKS4_S8_S8_RNS_8ios_baseES4_, symObjAddr: 0x74D8, symBinAddr: 0x10000AE58, symSize: 0x248 }
  - { offsetInCU: 0xA7DE, offset: 0xA7DE, size: 0x8, addend: 0x0, symName: __ZSt28__throw_bad_array_new_lengthB7v160006v, symObjAddr: 0x28A4, symBinAddr: 0x100006224, symSize: 0x34 }
  - { offsetInCU: 0xD080, offset: 0xD080, size: 0x8, addend: 0x0, symName: _main, symObjAddr: 0x0, symBinAddr: 0x100003980, symSize: 0x260 }
  - { offsetInCU: 0xD1CE, offset: 0xD1CE, size: 0x8, addend: 0x0, symName: __ZN11CustomStackC1Ev, symObjAddr: 0x260, symBinAddr: 0x100003BE0, symSize: 0x2C }
  - { offsetInCU: 0xD1FA, offset: 0xD1FA, size: 0x8, addend: 0x0, symName: __ZNSt3__112basic_stringIcNS_11char_traitsIcEENS_9allocatorIcEEEC1B7v160006Ev, symObjAddr: 0x28C, symBinAddr: 0x100003C0C, symSize: 0x2C }
  - { offsetInCU: 0xD224, offset: 0xD224, size: 0x8, addend: 0x0, symName: __ZNKSt3__19basic_iosIcNS_11char_traitsIcEEEcvPvB7v160006Ev, symObjAddr: 0x5DC, symBinAddr: 0x100003F5C, symSize: 0x4C }
  - { offsetInCU: 0xD24A, offset: 0xD24A, size: 0x8, addend: 0x0, symName: __ZNSt3__112basic_stringIcNS_11char_traitsIcEENS_9allocatorIcEEEixB7v160006Em, symObjAddr: 0x628, symBinAddr: 0x100003FA8, symSize: 0x30 }
  - { offsetInCU: 0xD27F, offset: 0xD27F, size: 0x8, addend: 0x0, symName: __ZN11CustomStack6insertERKNSt3__112basic_stringIcNS0_11char_traitsIcEENS0_9allocatorIcEEEE, symObjAddr: 0x658, symBinAddr: 0x100003FD8, symSize: 0xD4 }
  - { offsetInCU: 0xD2B3, offset: 0xD2B3, size: 0x8, addend: 0x0, symName: __ZN11CustomStack11deleteCharsEi, symObjAddr: 0x738, symBinAddr: 0x1000040B8, symSize: 0xE4 }
  - { offsetInCU: 0xD2F5, offset: 0xD2F5, size: 0x8, addend: 0x0, symName: __ZN11CustomStack3getEi, symObjAddr: 0x850, symBinAddr: 0x1000041D0, symSize: 0x3C }
  - { offsetInCU: 0xD329, offset: 0xD329, size: 0x8, addend: 0x0, symName: __ZNSt3__113basic_ostreamIcNS_11char_traitsIcEEElsB7v160006EPFRS3_S4_E, symObjAddr: 0x88C, symBinAddr: 0x10000420C, symSize: 0x2C }
  - { offsetInCU: 0xD35D, offset: 0xD35D, size: 0x8, addend: 0x0, symName: __ZN11CustomStack4undoEv, symObjAddr: 0x910, symBinAddr: 0x100004290, symSize: 0x138 }
  - { offsetInCU: 0xD397, offset: 0xD397, size: 0x8, addend: 0x0, symName: __ZN11CustomStackD1Ev, symObjAddr: 0xA48, symBinAddr: 0x1000043C8, symSize: 0x2C }
  - { offsetInCU: 0xD3C3, offset: 0xD3C3, size: 0x8, addend: 0x0, symName: __ZN11CustomStackC2Ev, symObjAddr: 0xA74, symBinAddr: 0x1000043F4, symSize: 0x68 }
  - { offsetInCU: 0xD3EF, offset: 0xD3EF, size: 0x8, addend: 0x0, symName: __ZNSt3__15stackINS_4pairIiNS_12basic_stringIcNS_11char_traitsIcEENS_9allocatorIcEEEEEENS_5dequeIS8_NS5_IS8_EEEEEC1B7v160006Ev, symObjAddr: 0xADC, symBinAddr: 0x10000445C, symSize: 0x2C }
  - { offsetInCU: 0xD419, offset: 0xD419, size: 0x8, addend: 0x0, symName: __ZNSt3__15stackINS_4pairIiNS_12basic_stringIcNS_11char_traitsIcEENS_9allocatorIcEEEEEENS_5dequeIS8_NS5_IS8_EEEEEC2B7v160006Ev, symObjAddr: 0xB08, symBinAddr: 0x100004488, symSize: 0x2C }
  - { offsetInCU: 0xD443, offset: 0xD443, size: 0x8, addend: 0x0, symName: __ZNSt3__15dequeINS_4pairIiNS_12basic_stringIcNS_11char_traitsIcEENS_9allocatorIcEEEEEENS5_IS8_EEEC1B7v160006Ev, symObjAddr: 0xB34, symBinAddr: 0x1000044B4, symSize: 0x2C }
  - { offsetInCU: 0xD46D, offset: 0xD46D, size: 0x8, addend: 0x0, symName: __ZNSt3__15dequeINS_4pairIiNS_12basic_stringIcNS_11char_traitsIcEENS_9allocatorIcEEEEEENS5_IS8_EEEC2B7v160006Ev, symObjAddr: 0xB60, symBinAddr: 0x1000044E0, symSize: 0x78 }
  - { offsetInCU: 0xD497, offset: 0xD497, size: 0x8, addend: 0x0, symName: __ZNSt3__114__split_bufferIPNS_4pairIiNS_12basic_stringIcNS_11char_traitsIcEENS_9allocatorIcEEEEEENS5_IS9_EEEC1Ev, symObjAddr: 0xBD8, symBinAddr: 0x100004558, symSize: 0x2C }
  - { offsetInCU: 0xD4CD, offset: 0xD4CD, size: 0x8, addend: 0x0, symName: __ZNSt3__117__compressed_pairImNS_9allocatorINS_4pairIiNS_12basic_stringIcNS_11char_traitsIcEENS1_IcEEEEEEEEEC1B7v160006IiNS_18__default_init_tagEEEOT_OT0_, symObjAddr: 0xC04, symBinAddr: 0x100004584, symSize: 0x3C }
  - { offsetInCU: 0xD525, offset: 0xD525, size: 0x8, addend: 0x0, symName: __ZNSt3__114__split_bufferIPNS_4pairIiNS_12basic_stringIcNS_11char_traitsIcEENS_9allocatorIcEEEEEENS5_IS9_EEED1Ev, symObjAddr: 0xC40, symBinAddr: 0x1000045C0, symSize: 0x2C }
  - { offsetInCU: 0xD551, offset: 0xD551, size: 0x8, addend: 0x0, symName: __ZNSt3__114__split_bufferIPNS_4pairIiNS_12basic_stringIcNS_11char_traitsIcEENS_9allocatorIcEEEEEENS5_IS9_EEEC2Ev, symObjAddr: 0xC6C, symBinAddr: 0x1000045EC, symSize: 0x48 }
  - { offsetInCU: 0xD582, offset: 0xD582, size: 0x8, addend: 0x0, symName: __ZNSt3__117__compressed_pairIPPNS_4pairIiNS_12basic_stringIcNS_11char_traitsIcEENS_9allocatorIcEEEEEENS5_IS9_EEEC1B7v160006IDnNS_18__default_init_tagEEEOT_OT0_, symObjAddr: 0xCB4, symBinAddr: 0x100004634, symSize: 0x3C }
  - { offsetInCU: 0xD5DA, offset: 0xD5DA, size: 0x8, addend: 0x0, symName: __ZNSt3__117__compressed_pairIPPNS_4pairIiNS_12basic_stringIcNS_11char_traitsIcEENS_9allocatorIcEEEEEENS5_IS9_EEEC2B7v160006IDnNS_18__default_init_tagEEEOT_OT0_, symObjAddr: 0xCF0, symBinAddr: 0x100004670, symSize: 0x40 }
  - { offsetInCU: 0xD632, offset: 0xD632, size: 0x8, addend: 0x0, symName: __ZNSt3__122__compressed_pair_elemIPPNS_4pairIiNS_12basic_stringIcNS_11char_traitsIcEENS_9allocatorIcEEEEEELi0ELb0EEC2B7v160006IDnvEEOT_, symObjAddr: 0xD30, symBinAddr: 0x1000046B0, symSize: 0x1C }
  - { offsetInCU: 0xD674, offset: 0xD674, size: 0x8, addend: 0x0, symName: __ZNSt3__122__compressed_pair_elemINS_9allocatorIPNS_4pairIiNS_12basic_stringIcNS_11char_traitsIcEENS1_IcEEEEEEEELi1ELb1EEC2B7v160006ENS_18__default_init_tagE, symObjAddr: 0xD4C, symBinAddr: 0x1000046CC, symSize: 0x2C }
  - { offsetInCU: 0xD6A8, offset: 0xD6A8, size: 0x8, addend: 0x0, symName: __ZNSt3__19allocatorIPNS_4pairIiNS_12basic_stringIcNS_11char_traitsIcEENS0_IcEEEEEEEC2B7v160006Ev, symObjAddr: 0xD78, symBinAddr: 0x1000046F8, symSize: 0x2C }
  - { offsetInCU: 0xD6D2, offset: 0xD6D2, size: 0x8, addend: 0x0, symName: __ZNSt3__116__non_trivial_ifILb1ENS_9allocatorIPNS_4pairIiNS_12basic_stringIcNS_11char_traitsIcEENS1_IcEEEEEEEEEC2B7v160006Ev, symObjAddr: 0xDA4, symBinAddr: 0x100004724, symSize: 0x14 }
  - { offsetInCU: 0xD6FC, offset: 0xD6FC, size: 0x8, addend: 0x0, symName: __ZNSt3__117__compressed_pairImNS_9allocatorINS_4pairIiNS_12basic_stringIcNS_11char_traitsIcEENS1_IcEEEEEEEEEC2B7v160006IiNS_18__default_init_tagEEEOT_OT0_, symObjAddr: 0xDB8, symBinAddr: 0x100004738, symSize: 0x40 }
  - { offsetInCU: 0xD754, offset: 0xD754, size: 0x8, addend: 0x0, symName: __ZNSt3__122__compressed_pair_elemImLi0ELb0EEC2B7v160006IivEEOT_, symObjAddr: 0xDF8, symBinAddr: 0x100004778, symSize: 0x24 }
  - { offsetInCU: 0xD796, offset: 0xD796, size: 0x8, addend: 0x0, symName: __ZNSt3__122__compressed_pair_elemINS_9allocatorINS_4pairIiNS_12basic_stringIcNS_11char_traitsIcEENS1_IcEEEEEEEELi1ELb1EEC2B7v160006ENS_18__default_init_tagE, symObjAddr: 0xE1C, symBinAddr: 0x10000479C, symSize: 0x2C }
  - { offsetInCU: 0xD7CA, offset: 0xD7CA, size: 0x8, addend: 0x0, symName: __ZNSt3__19allocatorINS_4pairIiNS_12basic_stringIcNS_11char_traitsIcEENS0_IcEEEEEEEC2B7v160006Ev, symObjAddr: 0xE48, symBinAddr: 0x1000047C8, symSize: 0x2C }
  - { offsetInCU: 0xD7F4, offset: 0xD7F4, size: 0x8, addend: 0x0, symName: __ZNSt3__116__non_trivial_ifILb1ENS_9allocatorINS_4pairIiNS_12basic_stringIcNS_11char_traitsIcEENS1_IcEEEEEEEEEC2B7v160006Ev, symObjAddr: 0xE74, symBinAddr: 0x1000047F4, symSize: 0x14 }
  - { offsetInCU: 0xD81E, offset: 0xD81E, size: 0x8, addend: 0x0, symName: __ZNSt3__114__split_bufferIPNS_4pairIiNS_12basic_stringIcNS_11char_traitsIcEENS_9allocatorIcEEEEEENS5_IS9_EEED2Ev, symObjAddr: 0xE88, symBinAddr: 0x100004808, symSize: 0x80 }
  - { offsetInCU: 0xD84A, offset: 0xD84A, size: 0x8, addend: 0x0, symName: __ZNSt3__114__split_bufferIPNS_4pairIiNS_12basic_stringIcNS_11char_traitsIcEENS_9allocatorIcEEEEEENS5_IS9_EEE5clearB7v160006Ev, symObjAddr: 0xF08, symBinAddr: 0x100004888, symSize: 0x28 }
  - { offsetInCU: 0xD870, offset: 0xD870, size: 0x8, addend: 0x0, symName: __ZNSt3__116allocator_traitsINS_9allocatorIPNS_4pairIiNS_12basic_stringIcNS_11char_traitsIcEENS1_IcEEEEEEEEE10deallocateB7v160006ERSA_PS9_m, symObjAddr: 0xF30, symBinAddr: 0x1000048B0, symSize: 0x34 }
  - { offsetInCU: 0xD8B2, offset: 0xD8B2, size: 0x8, addend: 0x0, symName: __ZNSt3__114__split_bufferIPNS_4pairIiNS_12basic_stringIcNS_11char_traitsIcEENS_9allocatorIcEEEEEENS5_IS9_EEE7__allocB7v160006Ev, symObjAddr: 0xF64, symBinAddr: 0x1000048E4, symSize: 0x28 }
  - { offsetInCU: 0xD8D8, offset: 0xD8D8, size: 0x8, addend: 0x0, symName: __ZNKSt3__114__split_bufferIPNS_4pairIiNS_12basic_stringIcNS_11char_traitsIcEENS_9allocatorIcEEEEEENS5_IS9_EEE8capacityB7v160006Ev, symObjAddr: 0xF8C, symBinAddr: 0x10000490C, symSize: 0x40 }
  - { offsetInCU: 0xD8FE, offset: 0xD8FE, size: 0x8, addend: 0x0, symName: __ZNSt3__114__split_bufferIPNS_4pairIiNS_12basic_stringIcNS_11char_traitsIcEENS_9allocatorIcEEEEEENS5_IS9_EEE17__destruct_at_endB7v160006EPS9_, symObjAddr: 0xFCC, symBinAddr: 0x10000494C, symSize: 0x2C }
  - { offsetInCU: 0xD932, offset: 0xD932, size: 0x8, addend: 0x0, symName: __ZNSt3__114__split_bufferIPNS_4pairIiNS_12basic_stringIcNS_11char_traitsIcEENS_9allocatorIcEEEEEENS5_IS9_EEE17__destruct_at_endB7v160006EPS9_NS_17integral_constantIbLb0EEE, symObjAddr: 0xFF8, symBinAddr: 0x100004978, symSize: 0x94 }
  - { offsetInCU: 0xD972, offset: 0xD972, size: 0x8, addend: 0x0, symName: __ZNSt3__116allocator_traitsINS_9allocatorIPNS_4pairIiNS_12basic_stringIcNS_11char_traitsIcEENS1_IcEEEEEEEEE7destroyB7v160006IS9_vEEvRSA_PT_, symObjAddr: 0x108C, symBinAddr: 0x100004A0C, symSize: 0x2C }
  - { offsetInCU: 0xD9AF, offset: 0xD9AF, size: 0x8, addend: 0x0, symName: __ZNSt3__19allocatorIPNS_4pairIiNS_12basic_stringIcNS_11char_traitsIcEENS0_IcEEEEEEE7destroyB7v160006EPS8_, symObjAddr: 0x10CC, symBinAddr: 0x100004A4C, symSize: 0x14 }
  - { offsetInCU: 0xD9E3, offset: 0xD9E3, size: 0x8, addend: 0x0, symName: __ZNSt3__19allocatorIPNS_4pairIiNS_12basic_stringIcNS_11char_traitsIcEENS0_IcEEEEEEE10deallocateB7v160006EPS8_m, symObjAddr: 0x10E0, symBinAddr: 0x100004A60, symSize: 0x70 }
  - { offsetInCU: 0xDA25, offset: 0xDA25, size: 0x8, addend: 0x0, symName: __ZNSt3__117__compressed_pairIPPNS_4pairIiNS_12basic_stringIcNS_11char_traitsIcEENS_9allocatorIcEEEEEENS5_IS9_EEE6secondB7v160006Ev, symObjAddr: 0x11D8, symBinAddr: 0x100004B58, symSize: 0x24 }
  - { offsetInCU: 0xDA4B, offset: 0xDA4B, size: 0x8, addend: 0x0, symName: __ZNSt3__122__compressed_pair_elemINS_9allocatorIPNS_4pairIiNS_12basic_stringIcNS_11char_traitsIcEENS1_IcEEEEEEEELi1ELb1EE5__getB7v160006Ev, symObjAddr: 0x11FC, symBinAddr: 0x100004B7C, symSize: 0x14 }
  - { offsetInCU: 0xDA71, offset: 0xDA71, size: 0x8, addend: 0x0, symName: __ZNKSt3__114__split_bufferIPNS_4pairIiNS_12basic_stringIcNS_11char_traitsIcEENS_9allocatorIcEEEEEENS5_IS9_EEE9__end_capB7v160006Ev, symObjAddr: 0x1210, symBinAddr: 0x100004B90, symSize: 0x28 }
  - { offsetInCU: 0xDA97, offset: 0xDA97, size: 0x8, addend: 0x0, symName: __ZNKSt3__117__compressed_pairIPPNS_4pairIiNS_12basic_stringIcNS_11char_traitsIcEENS_9allocatorIcEEEEEENS5_IS9_EEE5firstB7v160006Ev, symObjAddr: 0x1238, symBinAddr: 0x100004BB8, symSize: 0x24 }
  - { offsetInCU: 0xDABD, offset: 0xDABD, size: 0x8, addend: 0x0, symName: __ZNKSt3__122__compressed_pair_elemIPPNS_4pairIiNS_12basic_stringIcNS_11char_traitsIcEENS_9allocatorIcEEEEEELi0ELb0EE5__getB7v160006Ev, symObjAddr: 0x125C, symBinAddr: 0x100004BDC, symSize: 0x14 }
  - { offsetInCU: 0xDAE8, offset: 0xDAE8, size: 0x8, addend: 0x0, symName: __ZNSt3__112basic_stringIcNS_11char_traitsIcEENS_9allocatorIcEEE6insertINS_11__wrap_iterIPKcEEEENS_9enable_ifIXsr27__is_cpp17_forward_iteratorIT_EE5valueENS7_IPcEEE4typeESA_SC_SC_, symObjAddr: 0x1270, symBinAddr: 0x100004BF0, symSize: 0x1E4 }
  - { offsetInCU: 0xDB7B, offset: 0xDB7B, size: 0x8, addend: 0x0, symName: __ZNSt3__112basic_stringIcNS_11char_traitsIcEENS_9allocatorIcEEE5beginB7v160006Ev, symObjAddr: 0x1454, symBinAddr: 0x100004DD4, symSize: 0x60 }
  - { offsetInCU: 0xDBAB, offset: 0xDBAB, size: 0x8, addend: 0x0, symName: __ZNSt3__111__wrap_iterIPKcEC1B7v160006IPcEERKNS0_IT_EEPNS_9enable_ifIXsr14is_convertibleIS6_S2_EE5valueEvE4typeE, symObjAddr: 0x14B4, symBinAddr: 0x100004E34, symSize: 0x3C }
  - { offsetInCU: 0xDBF6, offset: 0xDBF6, size: 0x8, addend: 0x0, symName: __ZNKSt3__112basic_stringIcNS_11char_traitsIcEENS_9allocatorIcEEE5beginB7v160006Ev, symObjAddr: 0x14F0, symBinAddr: 0x100004E70, symSize: 0x60 }
  - { offsetInCU: 0xDC1C, offset: 0xDC1C, size: 0x8, addend: 0x0, symName: __ZNKSt3__112basic_stringIcNS_11char_traitsIcEENS_9allocatorIcEEE3endB7v160006Ev, symObjAddr: 0x1550, symBinAddr: 0x100004ED0, symSize: 0x54 }
  - { offsetInCU: 0xDC42, offset: 0xDC42, size: 0x8, addend: 0x0, symName: __ZNSt3__15stackINS_4pairIiNS_12basic_stringIcNS_11char_traitsIcEENS_9allocatorIcEEEEEENS_5dequeIS8_NS5_IS8_EEEEE4pushB7v160006ERKS8_, symObjAddr: 0x15A4, symBinAddr: 0x100004F24, symSize: 0x2C }
  - { offsetInCU: 0xDC76, offset: 0xDC76, size: 0x8, addend: 0x0, symName: __ZNSt3__14pairIiNS_12basic_stringIcNS_11char_traitsIcEENS_9allocatorIcEEEEED1Ev, symObjAddr: 0x1610, symBinAddr: 0x100004F90, symSize: 0x2C }
  - { offsetInCU: 0xDCA2, offset: 0xDCA2, size: 0x8, addend: 0x0, symName: __ZNKSt3__111__wrap_iterIPcEplB7v160006El, symObjAddr: 0x16B8, symBinAddr: 0x100005038, symSize: 0x3C }
  - { offsetInCU: 0xDCE4, offset: 0xDCE4, size: 0x8, addend: 0x0, symName: __ZNKSt3__112basic_stringIcNS_11char_traitsIcEENS_9allocatorIcEEE15__addr_in_rangeB7v160006IRKcEEbOT_, symObjAddr: 0x16F4, symBinAddr: 0x100005074, symSize: 0xD0 }
  - { offsetInCU: 0xDD31, offset: 0xDD31, size: 0x8, addend: 0x0, symName: __ZNKSt3__111__wrap_iterIPKcEdeB7v160006Ev, symObjAddr: 0x17C4, symBinAddr: 0x100005144, symSize: 0x18 }
  - { offsetInCU: 0xDD57, offset: 0xDD57, size: 0x8, addend: 0x0, symName: __ZNSt3__112basic_stringIcNS_11char_traitsIcEENS_9allocatorIcEEE23__insert_from_safe_copyB7v160006INS_11__wrap_iterIPKcEEEENS7_IPcEEmmT_SD_, symObjAddr: 0x17DC, symBinAddr: 0x10000515C, symSize: 0x1CC }
  - { offsetInCU: 0xDE0D, offset: 0xDE0D, size: 0x8, addend: 0x0, symName: __ZNSt3__112basic_stringIcNS_11char_traitsIcEENS_9allocatorIcEEE7__allocB7v160006Ev, symObjAddr: 0x19A8, symBinAddr: 0x100005328, symSize: 0x24 }
  - { offsetInCU: 0xDE33, offset: 0xDE33, size: 0x8, addend: 0x0, symName: __ZNSt3__112basic_stringIcNS_11char_traitsIcEENS_9allocatorIcEEEC1B7v160006INS_11__wrap_iterIPKcEEvEET_SB_RKS4_, symObjAddr: 0x19CC, symBinAddr: 0x10000534C, symSize: 0x44 }
  - { offsetInCU: 0xDE94, offset: 0xDE94, size: 0x8, addend: 0x0, symName: __ZNKSt3__111__wrap_iterIPKcE4baseB7v160006Ev, symObjAddr: 0x1A10, symBinAddr: 0x100005390, symSize: 0x18 }
  - { offsetInCU: 0xDEBA, offset: 0xDEBA, size: 0x8, addend: 0x0, symName: __ZNKSt3__111__wrap_iterIPcE4baseB7v160006Ev, symObjAddr: 0x1A28, symBinAddr: 0x1000053A8, symSize: 0x18 }
  - { offsetInCU: 0xDEE0, offset: 0xDEE0, size: 0x8, addend: 0x0, symName: __ZNSt3__111__wrap_iterIPcEpLB7v160006El, symObjAddr: 0x1AB0, symBinAddr: 0x100005430, symSize: 0x28 }
  - { offsetInCU: 0xDF14, offset: 0xDF14, size: 0x8, addend: 0x0, symName: __ZNKSt3__112basic_stringIcNS_11char_traitsIcEENS_9allocatorIcEEE4dataB7v160006Ev, symObjAddr: 0x1AD8, symBinAddr: 0x100005458, symSize: 0x28 }
  - { offsetInCU: 0xDF3A, offset: 0xDF3A, size: 0x8, addend: 0x0, symName: __ZNKSt3__112basic_stringIcNS_11char_traitsIcEENS_9allocatorIcEEE4sizeB7v160006Ev, symObjAddr: 0x1B00, symBinAddr: 0x100005480, symSize: 0x54 }
  - { offsetInCU: 0xDF60, offset: 0xDF60, size: 0x8, addend: 0x0, symName: __ZNKSt3__112basic_stringIcNS_11char_traitsIcEENS_9allocatorIcEEE13__get_pointerB7v160006Ev, symObjAddr: 0x1B68, symBinAddr: 0x1000054E8, symSize: 0x54 }
  - { offsetInCU: 0xDF86, offset: 0xDF86, size: 0x8, addend: 0x0, symName: __ZNKSt3__112basic_stringIcNS_11char_traitsIcEENS_9allocatorIcEEE9__is_longB7v160006Ev, symObjAddr: 0x1BBC, symBinAddr: 0x10000553C, symSize: 0x74 }
  - { offsetInCU: 0xDFAC, offset: 0xDFAC, size: 0x8, addend: 0x0, symName: __ZNKSt3__112basic_stringIcNS_11char_traitsIcEENS_9allocatorIcEEE18__get_long_pointerB7v160006Ev, symObjAddr: 0x1C30, symBinAddr: 0x1000055B0, symSize: 0x28 }
  - { offsetInCU: 0xDFD2, offset: 0xDFD2, size: 0x8, addend: 0x0, symName: __ZNKSt3__112basic_stringIcNS_11char_traitsIcEENS_9allocatorIcEEE19__get_short_pointerB7v160006Ev, symObjAddr: 0x1C58, symBinAddr: 0x1000055D8, symSize: 0x28 }
  - { offsetInCU: 0xDFF8, offset: 0xDFF8, size: 0x8, addend: 0x0, symName: __ZNKSt3__117__compressed_pairINS_12basic_stringIcNS_11char_traitsIcEENS_9allocatorIcEEE5__repES5_E5firstB7v160006Ev, symObjAddr: 0x1C80, symBinAddr: 0x100005600, symSize: 0x24 }
  - { offsetInCU: 0xE01E, offset: 0xE01E, size: 0x8, addend: 0x0, symName: __ZNKSt3__122__compressed_pair_elemINS_12basic_stringIcNS_11char_traitsIcEENS_9allocatorIcEEE5__repELi0ELb0EE5__getB7v160006Ev, symObjAddr: 0x1CA4, symBinAddr: 0x100005624, symSize: 0x14 }
  - { offsetInCU: 0xE044, offset: 0xE044, size: 0x8, addend: 0x0, symName: __ZNSt3__114pointer_traitsIPKcE10pointer_toB7v160006ERS1_, symObjAddr: 0x1CB8, symBinAddr: 0x100005638, symSize: 0x14 }
  - { offsetInCU: 0xE067, offset: 0xE067, size: 0x8, addend: 0x0, symName: __ZNKSt3__112basic_stringIcNS_11char_traitsIcEENS_9allocatorIcEEE15__get_long_sizeB7v160006Ev, symObjAddr: 0x1CCC, symBinAddr: 0x10000564C, symSize: 0x28 }
  - { offsetInCU: 0xE08D, offset: 0xE08D, size: 0x8, addend: 0x0, symName: __ZNKSt3__112basic_stringIcNS_11char_traitsIcEENS_9allocatorIcEEE16__get_short_sizeB7v160006Ev, symObjAddr: 0x1CF4, symBinAddr: 0x100005674, symSize: 0x34 }
  - { offsetInCU: 0xE0B3, offset: 0xE0B3, size: 0x8, addend: 0x0, symName: __ZNKSt3__112basic_stringIcNS_11char_traitsIcEENS_9allocatorIcEEE8capacityB7v160006Ev, symObjAddr: 0x1D28, symBinAddr: 0x1000056A8, symSize: 0x54 }
  - { offsetInCU: 0xE0D9, offset: 0xE0D9, size: 0x8, addend: 0x0, symName: __ZNSt3__112basic_stringIcNS_11char_traitsIcEENS_9allocatorIcEEE13__get_pointerB7v160006Ev, symObjAddr: 0x1D90, symBinAddr: 0x100005710, symSize: 0x54 }
  - { offsetInCU: 0xE0FF, offset: 0xE0FF, size: 0x8, addend: 0x0, symName: __ZNSt3__111char_traitsIcE4moveEPcPKcm, symObjAddr: 0x1DE4, symBinAddr: 0x100005764, symSize: 0x34 }
  - { offsetInCU: 0xE13E, offset: 0xE13E, size: 0x8, addend: 0x0, symName: __ZNSt3__112basic_stringIcNS_11char_traitsIcEENS_9allocatorIcEEE18__get_long_pointerB7v160006Ev, symObjAddr: 0x1E18, symBinAddr: 0x100005798, symSize: 0x28 }
  - { offsetInCU: 0xE164, offset: 0xE164, size: 0x8, addend: 0x0, symName: __ZNSt3__112basic_stringIcNS_11char_traitsIcEENS_9allocatorIcEEE10__set_sizeB7v160006Em, symObjAddr: 0x1E40, symBinAddr: 0x1000057C0, symSize: 0x54 }
  - { offsetInCU: 0xE199, offset: 0xE199, size: 0x8, addend: 0x0, symName: __ZNSt3__111char_traitsIcE6assignERcRKc, symObjAddr: 0x1E94, symBinAddr: 0x100005814, symSize: 0x24 }
  - { offsetInCU: 0xE1CA, offset: 0xE1CA, size: 0x8, addend: 0x0, symName: __ZNSt3__111__wrap_iterIPKcEppB7v160006Ev, symObjAddr: 0x1EEC, symBinAddr: 0x10000586C, symSize: 0x20 }
  - { offsetInCU: 0xE1F0, offset: 0xE1F0, size: 0x8, addend: 0x0, symName: __ZNKSt3__112basic_stringIcNS_11char_traitsIcEENS_9allocatorIcEEE14__get_long_capB7v160006Ev, symObjAddr: 0x1F0C, symBinAddr: 0x10000588C, symSize: 0x30 }
  - { offsetInCU: 0xE216, offset: 0xE216, size: 0x8, addend: 0x0, symName: __ZNSt3__112basic_stringIcNS_11char_traitsIcEENS_9allocatorIcEEE19__get_short_pointerB7v160006Ev, symObjAddr: 0x1F3C, symBinAddr: 0x1000058BC, symSize: 0x28 }
  - { offsetInCU: 0xE23C, offset: 0xE23C, size: 0x8, addend: 0x0, symName: __ZNSt3__114pointer_traitsIPcE10pointer_toB7v160006ERc, symObjAddr: 0x1F64, symBinAddr: 0x1000058E4, symSize: 0x14 }
  - { offsetInCU: 0xE25F, offset: 0xE25F, size: 0x8, addend: 0x0, symName: __ZNSt3__117__compressed_pairINS_12basic_stringIcNS_11char_traitsIcEENS_9allocatorIcEEE5__repES5_E5firstB7v160006Ev, symObjAddr: 0x1F78, symBinAddr: 0x1000058F8, symSize: 0x24 }
  - { offsetInCU: 0xE285, offset: 0xE285, size: 0x8, addend: 0x0, symName: __ZNSt3__122__compressed_pair_elemINS_12basic_stringIcNS_11char_traitsIcEENS_9allocatorIcEEE5__repELi0ELb0EE5__getB7v160006Ev, symObjAddr: 0x1F9C, symBinAddr: 0x10000591C, symSize: 0x14 }
  - { offsetInCU: 0xE2AB, offset: 0xE2AB, size: 0x8, addend: 0x0, symName: __ZNSt3__112basic_stringIcNS_11char_traitsIcEENS_9allocatorIcEEE15__set_long_sizeB7v160006Em, symObjAddr: 0x1FEC, symBinAddr: 0x10000596C, symSize: 0x38 }
  - { offsetInCU: 0xE2E0, offset: 0xE2E0, size: 0x8, addend: 0x0, symName: __ZNSt3__112basic_stringIcNS_11char_traitsIcEENS_9allocatorIcEEE16__set_short_sizeB7v160006Em, symObjAddr: 0x2024, symBinAddr: 0x1000059A4, symSize: 0x78 }
  - { offsetInCU: 0xE315, offset: 0xE315, size: 0x8, addend: 0x0, symName: __ZNSt3__117__compressed_pairINS_12basic_stringIcNS_11char_traitsIcEENS_9allocatorIcEEE5__repES5_E6secondB7v160006Ev, symObjAddr: 0x20E4, symBinAddr: 0x100005A64, symSize: 0x24 }
  - { offsetInCU: 0xE33B, offset: 0xE33B, size: 0x8, addend: 0x0, symName: __ZNSt3__122__compressed_pair_elemINS_9allocatorIcEELi1ELb1EE5__getB7v160006Ev, symObjAddr: 0x2108, symBinAddr: 0x100005A88, symSize: 0x14 }
  - { offsetInCU: 0xE361, offset: 0xE361, size: 0x8, addend: 0x0, symName: __ZNSt3__112basic_stringIcNS_11char_traitsIcEENS_9allocatorIcEEEC2B7v160006INS_11__wrap_iterIPKcEEvEET_SB_RKS4_, symObjAddr: 0x211C, symBinAddr: 0x100005A9C, symSize: 0x68 }
  - { offsetInCU: 0xE3C2, offset: 0xE3C2, size: 0x8, addend: 0x0, symName: __ZNSt3__117__compressed_pairINS_12basic_stringIcNS_11char_traitsIcEENS_9allocatorIcEEE5__repES5_EC1B7v160006INS_18__default_init_tagERKS5_EEOT_OT0_, symObjAddr: 0x2184, symBinAddr: 0x100005B04, symSize: 0x3C }
  - { offsetInCU: 0xE41A, offset: 0xE41A, size: 0x8, addend: 0x0, symName: __ZNSt3__112basic_stringIcNS_11char_traitsIcEENS_9allocatorIcEEE6__initINS_11__wrap_iterIPKcEEEENS_9enable_ifIXsr27__is_cpp17_forward_iteratorIT_EE5valueEvE4typeESC_SC_, symObjAddr: 0x21C0, symBinAddr: 0x100005B40, symSize: 0x1A4 }
  - { offsetInCU: 0xE4A6, offset: 0xE4A6, size: 0x8, addend: 0x0, symName: __ZNSt3__117__compressed_pairINS_12basic_stringIcNS_11char_traitsIcEENS_9allocatorIcEEE5__repES5_EC2B7v160006INS_18__default_init_tagERKS5_EEOT_OT0_, symObjAddr: 0x2374, symBinAddr: 0x100005CF4, symSize: 0x40 }
  - { offsetInCU: 0xE4FE, offset: 0xE4FE, size: 0x8, addend: 0x0, symName: __ZNSt3__122__compressed_pair_elemINS_12basic_stringIcNS_11char_traitsIcEENS_9allocatorIcEEE5__repELi0ELb0EEC2B7v160006ENS_18__default_init_tagE, symObjAddr: 0x23B4, symBinAddr: 0x100005D34, symSize: 0x14 }
  - { offsetInCU: 0xE532, offset: 0xE532, size: 0x8, addend: 0x0, symName: __ZNSt3__122__compressed_pair_elemINS_9allocatorIcEELi1ELb1EEC2B7v160006IRKS2_vEEOT_, symObjAddr: 0x23C8, symBinAddr: 0x100005D48, symSize: 0x18 }
  - { offsetInCU: 0xE574, offset: 0xE574, size: 0x8, addend: 0x0, symName: __ZNKSt3__112basic_stringIcNS_11char_traitsIcEENS_9allocatorIcEEE8max_sizeB7v160006Ev, symObjAddr: 0x23E0, symBinAddr: 0x100005D60, symSize: 0xAC }
  - { offsetInCU: 0xE5C7, offset: 0xE5C7, size: 0x8, addend: 0x0, symName: __ZNKSt3__112basic_stringIcNS_11char_traitsIcEENS_9allocatorIcEEE20__throw_length_errorB7v160006Ev, symObjAddr: 0x248C, symBinAddr: 0x100005E0C, symSize: 0x1C }
  - { offsetInCU: 0xE5ED, offset: 0xE5ED, size: 0x8, addend: 0x0, symName: __ZNSt3__112basic_stringIcNS_11char_traitsIcEENS_9allocatorIcEEE13__fits_in_ssoB7v160006Em, symObjAddr: 0x24A8, symBinAddr: 0x100005E28, symSize: 0x4C }
  - { offsetInCU: 0xE611, offset: 0xE611, size: 0x8, addend: 0x0, symName: __ZNSt3__112basic_stringIcNS_11char_traitsIcEENS_9allocatorIcEEE11__recommendB7v160006Em, symObjAddr: 0x2534, symBinAddr: 0x100005EB4, symSize: 0x9C }
  - { offsetInCU: 0xE644, offset: 0xE644, size: 0x8, addend: 0x0, symName: __ZNSt3__112basic_stringIcNS_11char_traitsIcEENS_9allocatorIcEEE16__begin_lifetimeB7v160006EPcm, symObjAddr: 0x25D0, symBinAddr: 0x100005F50, symSize: 0x14 }
  - { offsetInCU: 0xE677, offset: 0xE677, size: 0x8, addend: 0x0, symName: __ZNSt3__112basic_stringIcNS_11char_traitsIcEENS_9allocatorIcEEE18__set_long_pointerB7v160006EPc, symObjAddr: 0x25E4, symBinAddr: 0x100005F64, symSize: 0x38 }
  - { offsetInCU: 0xE6AC, offset: 0xE6AC, size: 0x8, addend: 0x0, symName: __ZNSt3__112basic_stringIcNS_11char_traitsIcEENS_9allocatorIcEEE14__set_long_capB7v160006Em, symObjAddr: 0x261C, symBinAddr: 0x100005F9C, symSize: 0x70 }
  - { offsetInCU: 0xE6EB, offset: 0xE6EB, size: 0x8, addend: 0x0, symName: __ZNSt3__116allocator_traitsINS_9allocatorIcEEE8max_sizeB7v160006IS2_vEEmRKS2_, symObjAddr: 0x268C, symBinAddr: 0x10000600C, symSize: 0x24 }
  - { offsetInCU: 0xE719, offset: 0xE719, size: 0x8, addend: 0x0, symName: __ZNKSt3__112basic_stringIcNS_11char_traitsIcEENS_9allocatorIcEEE7__allocB7v160006Ev, symObjAddr: 0x26B0, symBinAddr: 0x100006030, symSize: 0x24 }
  - { offsetInCU: 0xE73F, offset: 0xE73F, size: 0x8, addend: 0x0, symName: __ZNSt3__114numeric_limitsImE3maxB7v160006Ev, symObjAddr: 0x26D4, symBinAddr: 0x100006054, symSize: 0x14 }
  - { offsetInCU: 0xE753, offset: 0xE753, size: 0x8, addend: 0x0, symName: __ZNKSt3__19allocatorIcE8max_sizeB7v160006Ev, symObjAddr: 0x26E8, symBinAddr: 0x100006068, symSize: 0x14 }
  - { offsetInCU: 0xE779, offset: 0xE779, size: 0x8, addend: 0x0, symName: __ZNKSt3__117__compressed_pairINS_12basic_stringIcNS_11char_traitsIcEENS_9allocatorIcEEE5__repES5_E6secondB7v160006Ev, symObjAddr: 0x26FC, symBinAddr: 0x10000607C, symSize: 0x24 }
  - { offsetInCU: 0xE79F, offset: 0xE79F, size: 0x8, addend: 0x0, symName: __ZNKSt3__122__compressed_pair_elemINS_9allocatorIcEELi1ELb1EE5__getB7v160006Ev, symObjAddr: 0x2720, symBinAddr: 0x1000060A0, symSize: 0x14 }
  - { offsetInCU: 0xE7C5, offset: 0xE7C5, size: 0x8, addend: 0x0, symName: __ZNSt3__123__libcpp_numeric_limitsImLb1EE3maxB7v160006Ev, symObjAddr: 0x2734, symBinAddr: 0x1000060B4, symSize: 0x8 }
  - { offsetInCU: 0xE7D9, offset: 0xE7D9, size: 0x8, addend: 0x0, symName: __ZNSt12length_errorC1B7v160006EPKc, symObjAddr: 0x27A0, symBinAddr: 0x100006120, symSize: 0x34 }
  - { offsetInCU: 0xE811, offset: 0xE811, size: 0x8, addend: 0x0, symName: __ZNSt12length_errorC2B7v160006EPKc, symObjAddr: 0x27D4, symBinAddr: 0x100006154, symSize: 0x4C }
  - { offsetInCU: 0xE849, offset: 0xE849, size: 0x8, addend: 0x0, symName: __ZNSt3__19allocatorIcE8allocateB7v160006Em, symObjAddr: 0x2820, symBinAddr: 0x1000061A0, symSize: 0x84 }
  - { offsetInCU: 0xE87D, offset: 0xE87D, size: 0x8, addend: 0x0, symName: __ZNSt3__112basic_stringIcNS_11char_traitsIcEENS_9allocatorIcEEE10__align_itB7v160006ILm16EEEmm, symObjAddr: 0x2924, symBinAddr: 0x1000062A4, symSize: 0x1C }
  - { offsetInCU: 0xE8AB, offset: 0xE8AB, size: 0x8, addend: 0x0, symName: __ZNSt3__112basic_stringIcNS_11char_traitsIcEENS_9allocatorIcEEE15__make_iteratorB7v160006EPc, symObjAddr: 0x2940, symBinAddr: 0x1000062C0, symSize: 0x34 }
  - { offsetInCU: 0xE8E0, offset: 0xE8E0, size: 0x8, addend: 0x0, symName: __ZNSt3__111__wrap_iterIPcEC1B7v160006EPKvS1_, symObjAddr: 0x2974, symBinAddr: 0x1000062F4, symSize: 0x3C }
  - { offsetInCU: 0xE926, offset: 0xE926, size: 0x8, addend: 0x0, symName: __ZNSt3__111__wrap_iterIPcEC2B7v160006EPKvS1_, symObjAddr: 0x29B0, symBinAddr: 0x100006330, symSize: 0x24 }
  - { offsetInCU: 0xE96C, offset: 0xE96C, size: 0x8, addend: 0x0, symName: __ZNSt3__111__wrap_iterIPKcEC2B7v160006IPcEERKNS0_IT_EEPNS_9enable_ifIXsr14is_convertibleIS6_S2_EE5valueEvE4typeE, symObjAddr: 0x29D4, symBinAddr: 0x100006354, symSize: 0x40 }
  - { offsetInCU: 0xE9B7, offset: 0xE9B7, size: 0x8, addend: 0x0, symName: __ZNKSt3__112basic_stringIcNS_11char_traitsIcEENS_9allocatorIcEEE21__make_const_iteratorB7v160006EPKc, symObjAddr: 0x2A14, symBinAddr: 0x100006394, symSize: 0x34 }
  - { offsetInCU: 0xE9EC, offset: 0xE9EC, size: 0x8, addend: 0x0, symName: __ZNSt3__111__wrap_iterIPKcEC1B7v160006EPKvS2_, symObjAddr: 0x2A48, symBinAddr: 0x1000063C8, symSize: 0x3C }
  - { offsetInCU: 0xEA32, offset: 0xEA32, size: 0x8, addend: 0x0, symName: __ZNSt3__111__wrap_iterIPKcEC2B7v160006EPKvS2_, symObjAddr: 0x2A84, symBinAddr: 0x100006404, symSize: 0x24 }
  - { offsetInCU: 0xEA78, offset: 0xEA78, size: 0x8, addend: 0x0, symName: __ZNSt3__15dequeINS_4pairIiNS_12basic_stringIcNS_11char_traitsIcEENS_9allocatorIcEEEEEENS5_IS8_EEE9push_backERKS8_, symObjAddr: 0x2AA8, symBinAddr: 0x100006428, symSize: 0xA0 }
  - { offsetInCU: 0xEABE, offset: 0xEABE, size: 0x8, addend: 0x0, symName: __ZNSt3__15dequeINS_4pairIiNS_12basic_stringIcNS_11char_traitsIcEENS_9allocatorIcEEEEEENS5_IS8_EEE7__allocB7v160006Ev, symObjAddr: 0x2B48, symBinAddr: 0x1000064C8, symSize: 0x28 }
  - { offsetInCU: 0xEAE4, offset: 0xEAE4, size: 0x8, addend: 0x0, symName: __ZNKSt3__15dequeINS_4pairIiNS_12basic_stringIcNS_11char_traitsIcEENS_9allocatorIcEEEEEENS5_IS8_EEE12__back_spareB7v160006Ev, symObjAddr: 0x2B70, symBinAddr: 0x1000064F0, symSize: 0x54 }
  - { offsetInCU: 0xEB0A, offset: 0xEB0A, size: 0x8, addend: 0x0, symName: __ZNSt3__15dequeINS_4pairIiNS_12basic_stringIcNS_11char_traitsIcEENS_9allocatorIcEEEEEENS5_IS8_EEE19__add_back_capacityEv, symObjAddr: 0x2BC4, symBinAddr: 0x100006544, symSize: 0x32C }
  - { offsetInCU: 0xEBC2, offset: 0xEBC2, size: 0x8, addend: 0x0, symName: __ZNSt3__116allocator_traitsINS_9allocatorINS_4pairIiNS_12basic_stringIcNS_11char_traitsIcEENS1_IcEEEEEEEEE9constructB7v160006IS8_JRKS8_EvEEvRS9_PT_DpOT0_, symObjAddr: 0x2EF0, symBinAddr: 0x100006870, symSize: 0x34 }
  - { offsetInCU: 0xEC19, offset: 0xEC19, size: 0x8, addend: 0x0, symName: __ZNSt3__15dequeINS_4pairIiNS_12basic_stringIcNS_11char_traitsIcEENS_9allocatorIcEEEEEENS5_IS8_EEE3endB7v160006Ev, symObjAddr: 0x2F24, symBinAddr: 0x1000068A4, symSize: 0xE0 }
  - { offsetInCU: 0xEC5D, offset: 0xEC5D, size: 0x8, addend: 0x0, symName: __ZNKSt3__116__deque_iteratorINS_4pairIiNS_12basic_stringIcNS_11char_traitsIcEENS_9allocatorIcEEEEEEPS8_RS8_PS9_lLl128EEdeB7v160006Ev, symObjAddr: 0x3004, symBinAddr: 0x100006984, symSize: 0x18 }
  - { offsetInCU: 0xEC83, offset: 0xEC83, size: 0x8, addend: 0x0, symName: __ZNSt3__15dequeINS_4pairIiNS_12basic_stringIcNS_11char_traitsIcEENS_9allocatorIcEEEEEENS5_IS8_EEE6__sizeB7v160006Ev, symObjAddr: 0x301C, symBinAddr: 0x10000699C, symSize: 0x28 }
  - { offsetInCU: 0xECA9, offset: 0xECA9, size: 0x8, addend: 0x0, symName: __ZNSt3__117__compressed_pairImNS_9allocatorINS_4pairIiNS_12basic_stringIcNS_11char_traitsIcEENS1_IcEEEEEEEEE6secondB7v160006Ev, symObjAddr: 0x3044, symBinAddr: 0x1000069C4, symSize: 0x24 }
  - { offsetInCU: 0xECCF, offset: 0xECCF, size: 0x8, addend: 0x0, symName: __ZNSt3__122__compressed_pair_elemINS_9allocatorINS_4pairIiNS_12basic_stringIcNS_11char_traitsIcEENS1_IcEEEEEEEELi1ELb1EE5__getB7v160006Ev, symObjAddr: 0x3068, symBinAddr: 0x1000069E8, symSize: 0x14 }
  - { offsetInCU: 0xECF5, offset: 0xECF5, size: 0x8, addend: 0x0, symName: __ZNKSt3__15dequeINS_4pairIiNS_12basic_stringIcNS_11char_traitsIcEENS_9allocatorIcEEEEEENS5_IS8_EEE10__capacityB7v160006Ev, symObjAddr: 0x307C, symBinAddr: 0x1000069FC, symSize: 0x60 }
  - { offsetInCU: 0xED1B, offset: 0xED1B, size: 0x8, addend: 0x0, symName: __ZNKSt3__15dequeINS_4pairIiNS_12basic_stringIcNS_11char_traitsIcEENS_9allocatorIcEEEEEENS5_IS8_EEE4sizeB7v160006Ev, symObjAddr: 0x30DC, symBinAddr: 0x100006A5C, symSize: 0x28 }
  - { offsetInCU: 0xED41, offset: 0xED41, size: 0x8, addend: 0x0, symName: __ZNKSt3__114__split_bufferIPNS_4pairIiNS_12basic_stringIcNS_11char_traitsIcEENS_9allocatorIcEEEEEENS5_IS9_EEE4sizeB7v160006Ev, symObjAddr: 0x3104, symBinAddr: 0x100006A84, symSize: 0x28 }
  - { offsetInCU: 0xED67, offset: 0xED67, size: 0x8, addend: 0x0, symName: __ZNKSt3__15dequeINS_4pairIiNS_12basic_stringIcNS_11char_traitsIcEENS_9allocatorIcEEEEEENS5_IS8_EEE6__sizeB7v160006Ev, symObjAddr: 0x312C, symBinAddr: 0x100006AAC, symSize: 0x28 }
  - { offsetInCU: 0xED8D, offset: 0xED8D, size: 0x8, addend: 0x0, symName: __ZNKSt3__117__compressed_pairImNS_9allocatorINS_4pairIiNS_12basic_stringIcNS_11char_traitsIcEENS1_IcEEEEEEEEE5firstB7v160006Ev, symObjAddr: 0x3154, symBinAddr: 0x100006AD4, symSize: 0x24 }
  - { offsetInCU: 0xEDB3, offset: 0xEDB3, size: 0x8, addend: 0x0, symName: __ZNKSt3__122__compressed_pair_elemImLi0ELb0EE5__getB7v160006Ev, symObjAddr: 0x3178, symBinAddr: 0x100006AF8, symSize: 0x14 }
  - { offsetInCU: 0xEDD9, offset: 0xEDD9, size: 0x8, addend: 0x0, symName: __ZNKSt3__15dequeINS_4pairIiNS_12basic_stringIcNS_11char_traitsIcEENS_9allocatorIcEEEEEENS5_IS8_EEE13__front_spareB7v160006Ev, symObjAddr: 0x318C, symBinAddr: 0x100006B0C, symSize: 0x18 }
  - { offsetInCU: 0xEDFF, offset: 0xEDFF, size: 0x8, addend: 0x0, symName: __ZNSt3__114__split_bufferIPNS_4pairIiNS_12basic_stringIcNS_11char_traitsIcEENS_9allocatorIcEEEEEENS5_IS9_EEE5frontB7v160006Ev, symObjAddr: 0x31A4, symBinAddr: 0x100006B24, symSize: 0x18 }
  - { offsetInCU: 0xEE25, offset: 0xEE25, size: 0x8, addend: 0x0, symName: __ZNSt3__114__split_bufferIPNS_4pairIiNS_12basic_stringIcNS_11char_traitsIcEENS_9allocatorIcEEEEEENS5_IS9_EEE9pop_frontB7v160006Ev, symObjAddr: 0x31BC, symBinAddr: 0x100006B3C, symSize: 0x2C }
  - { offsetInCU: 0xEE4B, offset: 0xEE4B, size: 0x8, addend: 0x0, symName: __ZNSt3__114__split_bufferIPNS_4pairIiNS_12basic_stringIcNS_11char_traitsIcEENS_9allocatorIcEEEEEENS5_IS9_EEE9push_backB7v160006ERKS9_, symObjAddr: 0x31E8, symBinAddr: 0x100006B68, symSize: 0x270 }
  - { offsetInCU: 0xEEC4, offset: 0xEEC4, size: 0x8, addend: 0x0, symName: __ZNKSt3__114__split_bufferIPNS_4pairIiNS_12basic_stringIcNS_11char_traitsIcEENS_9allocatorIcEEEEEENS5_IS9_EEE12__back_spareB7v160006Ev, symObjAddr: 0x3458, symBinAddr: 0x100006DD8, symSize: 0x40 }
  - { offsetInCU: 0xEEEA, offset: 0xEEEA, size: 0x8, addend: 0x0, symName: __ZNSt3__114__split_bufferIPNS_4pairIiNS_12basic_stringIcNS_11char_traitsIcEENS_9allocatorIcEEEEEENS5_IS9_EEE9push_backEOS9_, symObjAddr: 0x3498, symBinAddr: 0x100006E18, symSize: 0x270 }
  - { offsetInCU: 0xEF63, offset: 0xEF63, size: 0x8, addend: 0x0, symName: __ZNSt3__116allocator_traitsINS_9allocatorINS_4pairIiNS_12basic_stringIcNS_11char_traitsIcEENS1_IcEEEEEEEEE8allocateB7v160006ERS9_m, symObjAddr: 0x3708, symBinAddr: 0x100007088, symSize: 0x2C }
  - { offsetInCU: 0xEF96, offset: 0xEF96, size: 0x8, addend: 0x0, symName: __ZNSt3__114__split_bufferIPNS_4pairIiNS_12basic_stringIcNS_11char_traitsIcEENS_9allocatorIcEEEEEENS5_IS9_EEE10push_frontEOS9_, symObjAddr: 0x3734, symBinAddr: 0x1000070B4, symSize: 0x26C }
  - { offsetInCU: 0xF00F, offset: 0xF00F, size: 0x8, addend: 0x0, symName: __ZNSt3__114__split_bufferIPNS_4pairIiNS_12basic_stringIcNS_11char_traitsIcEENS_9allocatorIcEEEEEERNS5_IS9_EEEC1EmmSB_, symObjAddr: 0x39CC, symBinAddr: 0x10000734C, symSize: 0x44 }
  - { offsetInCU: 0xF06A, offset: 0xF06A, size: 0x8, addend: 0x0, symName: __ZNSt3__122__allocator_destructorINS_9allocatorINS_4pairIiNS_12basic_stringIcNS_11char_traitsIcEENS1_IcEEEEEEEEEC1B7v160006ERS9_m, symObjAddr: 0x3A10, symBinAddr: 0x100007390, symSize: 0x3C }
  - { offsetInCU: 0xF132, offset: 0xF132, size: 0x8, addend: 0x0, symName: __ZNSt3__110unique_ptrIPNS_4pairIiNS_12basic_stringIcNS_11char_traitsIcEENS_9allocatorIcEEEEEENS_22__allocator_destructorINS5_IS8_EEEEEC1B7v160006ILb1EvEES9_NS_16__dependent_typeINS_27__unique_ptr_deleter_sfinaeISC_EEXT_EE20__good_rval_ref_typeE, symObjAddr: 0x3A4C, symBinAddr: 0x1000073CC, symSize: 0x3C }
  - { offsetInCU: 0xF183, offset: 0xF183, size: 0x8, addend: 0x0, symName: __ZNSt3__114__split_bufferIPNS_4pairIiNS_12basic_stringIcNS_11char_traitsIcEENS_9allocatorIcEEEEEERNS5_IS9_EEE9push_backEOS9_, symObjAddr: 0x3A88, symBinAddr: 0x100007408, symSize: 0x270 }
  - { offsetInCU: 0xF1FC, offset: 0xF1FC, size: 0x8, addend: 0x0, symName: __ZNKSt3__110unique_ptrIPNS_4pairIiNS_12basic_stringIcNS_11char_traitsIcEENS_9allocatorIcEEEEEENS_22__allocator_destructorINS5_IS8_EEEEE3getB7v160006Ev, symObjAddr: 0x3CF8, symBinAddr: 0x100007678, symSize: 0x28 }
  - { offsetInCU: 0xF222, offset: 0xF222, size: 0x8, addend: 0x0, symName: __ZNSt3__110unique_ptrIPNS_4pairIiNS_12basic_stringIcNS_11char_traitsIcEENS_9allocatorIcEEEEEENS_22__allocator_destructorINS5_IS8_EEEEE7releaseB7v160006Ev, symObjAddr: 0x3D20, symBinAddr: 0x1000076A0, symSize: 0x44 }
  - { offsetInCU: 0xF257, offset: 0xF257, size: 0x8, addend: 0x0, symName: __ZNSt3__114__split_bufferIPNS_4pairIiNS_12basic_stringIcNS_11char_traitsIcEENS_9allocatorIcEEEEEENS5_IS9_EEE3endB7v160006Ev, symObjAddr: 0x3D64, symBinAddr: 0x1000076E4, symSize: 0x18 }
  - { offsetInCU: 0xF27D, offset: 0xF27D, size: 0x8, addend: 0x0, symName: __ZNSt3__114__split_bufferIPNS_4pairIiNS_12basic_stringIcNS_11char_traitsIcEENS_9allocatorIcEEEEEENS5_IS9_EEE5beginB7v160006Ev, symObjAddr: 0x3D7C, symBinAddr: 0x1000076FC, symSize: 0x18 }
  - { offsetInCU: 0xF2A3, offset: 0xF2A3, size: 0x8, addend: 0x0, symName: __ZNSt3__114__split_bufferIPNS_4pairIiNS_12basic_stringIcNS_11char_traitsIcEENS_9allocatorIcEEEEEERNS5_IS9_EEE10push_frontERKS9_, symObjAddr: 0x3D94, symBinAddr: 0x100007714, symSize: 0x26C }
  - { offsetInCU: 0xF31C, offset: 0xF31C, size: 0x8, addend: 0x0, symName: __ZNSt3__114__split_bufferIPNS_4pairIiNS_12basic_stringIcNS_11char_traitsIcEENS_9allocatorIcEEEEEENS5_IS9_EEE9__end_capB7v160006Ev, symObjAddr: 0x403C, symBinAddr: 0x1000079BC, symSize: 0x28 }
  - { offsetInCU: 0xF342, offset: 0xF342, size: 0x8, addend: 0x0, symName: __ZNSt3__114__split_bufferIPNS_4pairIiNS_12basic_stringIcNS_11char_traitsIcEENS_9allocatorIcEEEEEERNS5_IS9_EEE9__end_capB7v160006Ev, symObjAddr: 0x4064, symBinAddr: 0x1000079E4, symSize: 0x28 }
  - { offsetInCU: 0xF368, offset: 0xF368, size: 0x8, addend: 0x0, symName: __ZNSt3__110unique_ptrIPNS_4pairIiNS_12basic_stringIcNS_11char_traitsIcEENS_9allocatorIcEEEEEENS_22__allocator_destructorINS5_IS8_EEEEED1B7v160006Ev, symObjAddr: 0x408C, symBinAddr: 0x100007A0C, symSize: 0x2C }
  - { offsetInCU: 0xF392, offset: 0xF392, size: 0x8, addend: 0x0, symName: __ZNSt3__114__split_bufferIPNS_4pairIiNS_12basic_stringIcNS_11char_traitsIcEENS_9allocatorIcEEEEEERNS5_IS9_EEED1Ev, symObjAddr: 0x40B8, symBinAddr: 0x100007A38, symSize: 0x2C }
  - { offsetInCU: 0xF3BE, offset: 0xF3BE, size: 0x8, addend: 0x0, symName: __ZNSt3__114__split_bufferIPNS_4pairIiNS_12basic_stringIcNS_11char_traitsIcEENS_9allocatorIcEEEEEENS5_IS9_EEE19__destruct_at_beginB7v160006EPS9_, symObjAddr: 0x40E4, symBinAddr: 0x100007A64, symSize: 0x2C }
  - { offsetInCU: 0xF3F2, offset: 0xF3F2, size: 0x8, addend: 0x0, symName: __ZNSt3__114__split_bufferIPNS_4pairIiNS_12basic_stringIcNS_11char_traitsIcEENS_9allocatorIcEEEEEENS5_IS9_EEE19__destruct_at_beginEPS9_NS_17integral_constantIbLb1EEE, symObjAddr: 0x4110, symBinAddr: 0x100007A90, symSize: 0x20 }
  - { offsetInCU: 0xF432, offset: 0xF432, size: 0x8, addend: 0x0, symName: __ZNSt3__114__split_bufferIPNS_4pairIiNS_12basic_stringIcNS_11char_traitsIcEENS_9allocatorIcEEEEEERNS5_IS9_EEE18__construct_at_endINS_13move_iteratorIPS9_EEEENS_9enable_ifIXsr27__is_cpp17_forward_iteratorIT_EE5valueEvE4typeESI_SI_, symObjAddr: 0x4170, symBinAddr: 0x100007AF0, symSize: 0x104 }
  - { offsetInCU: 0xF48E, offset: 0xF48E, size: 0x8, addend: 0x0, symName: __ZNSt3__113move_iteratorIPPNS_4pairIiNS_12basic_stringIcNS_11char_traitsIcEENS_9allocatorIcEEEEEEEC1B7v160006ESA_, symObjAddr: 0x4274, symBinAddr: 0x100007BF4, symSize: 0x34 }
  - { offsetInCU: 0xF4C6, offset: 0xF4C6, size: 0x8, addend: 0x0, symName: __ZNSt3__116allocator_traitsINS_9allocatorIPNS_4pairIiNS_12basic_stringIcNS_11char_traitsIcEENS1_IcEEEEEEEEE9constructB7v160006IS9_JRKS9_EvEEvRSA_PT_DpOT0_, symObjAddr: 0x42A8, symBinAddr: 0x100007C28, symSize: 0x34 }
  - { offsetInCU: 0xF540, offset: 0xF540, size: 0x8, addend: 0x0, symName: __ZNKSt3__114__move_trivialclB7v160006IPNS_4pairIiNS_12basic_stringIcNS_11char_traitsIcEENS_9allocatorIcEEEEEESA_Li0EEENS2_IPT_PT0_EESC_SC_SE_, symObjAddr: 0x4488, symBinAddr: 0x100007E08, symSize: 0x48 }
  - { offsetInCU: 0xF5A8, offset: 0xF5A8, size: 0x8, addend: 0x0, symName: __ZNSt3__14pairIPPNS0_IiNS_12basic_stringIcNS_11char_traitsIcEENS_9allocatorIcEEEEEES9_EC1B7v160006ERKS9_SC_, symObjAddr: 0x4664, symBinAddr: 0x100007FE4, symSize: 0x3C }
  - { offsetInCU: 0xF5EE, offset: 0xF5EE, size: 0x8, addend: 0x0, symName: __ZNSt3__14pairIPPNS0_IiNS_12basic_stringIcNS_11char_traitsIcEENS_9allocatorIcEEEEEES9_EC2B7v160006ERKS9_SC_, symObjAddr: 0x46A0, symBinAddr: 0x100008020, symSize: 0x34 }
  - { offsetInCU: 0xF634, offset: 0xF634, size: 0x8, addend: 0x0, symName: __ZNSt3__118__unwrap_iter_implIPPNS_4pairIiNS_12basic_stringIcNS_11char_traitsIcEENS_9allocatorIcEEEEEELb1EE8__unwrapB7v160006ESA_, symObjAddr: 0x46D4, symBinAddr: 0x100008054, symSize: 0x24 }
  - { offsetInCU: 0xF657, offset: 0xF657, size: 0x8, addend: 0x0, symName: __ZNSt3__118__unwrap_iter_implIPPNS_4pairIiNS_12basic_stringIcNS_11char_traitsIcEENS_9allocatorIcEEEEEELb1EE8__rewrapB7v160006ESA_SA_, symObjAddr: 0x46F8, symBinAddr: 0x100008078, symSize: 0x50 }
  - { offsetInCU: 0xF692, offset: 0xF692, size: 0x8, addend: 0x0, symName: __ZNSt3__114__split_bufferIPNS_4pairIiNS_12basic_stringIcNS_11char_traitsIcEENS_9allocatorIcEEEEEERNS5_IS9_EEE21_ConstructTransactionC1B7v160006EPPS9_m, symObjAddr: 0x4784, symBinAddr: 0x100008104, symSize: 0x3C }
  - { offsetInCU: 0xF6D8, offset: 0xF6D8, size: 0x8, addend: 0x0, symName: __ZNSt3__116allocator_traitsINS_9allocatorIPNS_4pairIiNS_12basic_stringIcNS_11char_traitsIcEENS1_IcEEEEEEEEE9constructB7v160006IS9_JS9_EvEEvRSA_PT_DpOT0_, symObjAddr: 0x47C0, symBinAddr: 0x100008140, symSize: 0x34 }
  - { offsetInCU: 0xF72F, offset: 0xF72F, size: 0x8, addend: 0x0, symName: __ZNSt3__114__split_bufferIPNS_4pairIiNS_12basic_stringIcNS_11char_traitsIcEENS_9allocatorIcEEEEEERNS5_IS9_EEE7__allocB7v160006Ev, symObjAddr: 0x47F4, symBinAddr: 0x100008174, symSize: 0x28 }
  - { offsetInCU: 0xF755, offset: 0xF755, size: 0x8, addend: 0x0, symName: __ZNKSt3__113move_iteratorIPPNS_4pairIiNS_12basic_stringIcNS_11char_traitsIcEENS_9allocatorIcEEEEEEEdeB7v160006Ev, symObjAddr: 0x481C, symBinAddr: 0x10000819C, symSize: 0x18 }
  - { offsetInCU: 0xF77B, offset: 0xF77B, size: 0x8, addend: 0x0, symName: __ZNSt3__113move_iteratorIPPNS_4pairIiNS_12basic_stringIcNS_11char_traitsIcEENS_9allocatorIcEEEEEEEppB7v160006Ev, symObjAddr: 0x4834, symBinAddr: 0x1000081B4, symSize: 0x20 }
  - { offsetInCU: 0xF7A1, offset: 0xF7A1, size: 0x8, addend: 0x0, symName: __ZNSt3__114__split_bufferIPNS_4pairIiNS_12basic_stringIcNS_11char_traitsIcEENS_9allocatorIcEEEEEERNS5_IS9_EEE21_ConstructTransactionD1B7v160006Ev, symObjAddr: 0x4854, symBinAddr: 0x1000081D4, symSize: 0x2C }
  - { offsetInCU: 0xF7CB, offset: 0xF7CB, size: 0x8, addend: 0x0, symName: __ZNKSt3__113move_iteratorIPPNS_4pairIiNS_12basic_stringIcNS_11char_traitsIcEENS_9allocatorIcEEEEEEE4baseB7v160006Ev, symObjAddr: 0x48F8, symBinAddr: 0x100008278, symSize: 0x18 }
  - { offsetInCU: 0xF7F1, offset: 0xF7F1, size: 0x8, addend: 0x0, symName: __ZNSt3__114__split_bufferIPNS_4pairIiNS_12basic_stringIcNS_11char_traitsIcEENS_9allocatorIcEEEEEERNS5_IS9_EEE21_ConstructTransactionC2B7v160006EPPS9_m, symObjAddr: 0x4910, symBinAddr: 0x100008290, symSize: 0x44 }
  - { offsetInCU: 0xF837, offset: 0xF837, size: 0x8, addend: 0x0, symName: __ZNSt3__19allocatorIPNS_4pairIiNS_12basic_stringIcNS_11char_traitsIcEENS0_IcEEEEEEE9constructB7v160006IS8_JS8_EEEvPT_DpOT0_, symObjAddr: 0x4954, symBinAddr: 0x1000082D4, symSize: 0x28 }
  - { offsetInCU: 0xF88D, offset: 0xF88D, size: 0x8, addend: 0x0, symName: __ZNSt3__117__compressed_pairIPPNS_4pairIiNS_12basic_stringIcNS_11char_traitsIcEENS_9allocatorIcEEEEEERNS5_IS9_EEE6secondB7v160006Ev, symObjAddr: 0x497C, symBinAddr: 0x1000082FC, symSize: 0x28 }
  - { offsetInCU: 0xF8B3, offset: 0xF8B3, size: 0x8, addend: 0x0, symName: __ZNSt3__122__compressed_pair_elemIRNS_9allocatorIPNS_4pairIiNS_12basic_stringIcNS_11char_traitsIcEENS1_IcEEEEEEEELi1ELb0EE5__getB7v160006Ev, symObjAddr: 0x49A4, symBinAddr: 0x100008324, symSize: 0x18 }
  - { offsetInCU: 0xF8D9, offset: 0xF8D9, size: 0x8, addend: 0x0, symName: __ZNSt3__114__split_bufferIPNS_4pairIiNS_12basic_stringIcNS_11char_traitsIcEENS_9allocatorIcEEEEEERNS5_IS9_EEE21_ConstructTransactionD2B7v160006Ev, symObjAddr: 0x49BC, symBinAddr: 0x10000833C, symSize: 0x20 }
  - { offsetInCU: 0xF903, offset: 0xF903, size: 0x8, addend: 0x0, symName: __ZNSt3__113move_iteratorIPPNS_4pairIiNS_12basic_stringIcNS_11char_traitsIcEENS_9allocatorIcEEEEEEEC2B7v160006ESA_, symObjAddr: 0x49DC, symBinAddr: 0x10000835C, symSize: 0x20 }
  - { offsetInCU: 0xF93B, offset: 0xF93B, size: 0x8, addend: 0x0, symName: __ZNSt3__19allocatorIPNS_4pairIiNS_12basic_stringIcNS_11char_traitsIcEENS0_IcEEEEEEE9constructB7v160006IS8_JRKS8_EEEvPT_DpOT0_, symObjAddr: 0x49FC, symBinAddr: 0x10000837C, symSize: 0x28 }
  - { offsetInCU: 0xF991, offset: 0xF991, size: 0x8, addend: 0x0, symName: __ZNSt3__19allocatorINS_4pairIiNS_12basic_stringIcNS_11char_traitsIcEENS0_IcEEEEEEE8allocateB7v160006Em, symObjAddr: 0x4A24, symBinAddr: 0x1000083A4, symSize: 0x84 }
  - { offsetInCU: 0xF9CF, offset: 0xF9CF, size: 0x8, addend: 0x0, symName: __ZNSt3__116allocator_traitsINS_9allocatorINS_4pairIiNS_12basic_stringIcNS_11char_traitsIcEENS1_IcEEEEEEEEE8max_sizeB7v160006IS9_vEEmRKS9_, symObjAddr: 0x4AA8, symBinAddr: 0x100008428, symSize: 0x24 }
  - { offsetInCU: 0xF9FD, offset: 0xF9FD, size: 0x8, addend: 0x0, symName: __ZNKSt3__19allocatorINS_4pairIiNS_12basic_stringIcNS_11char_traitsIcEENS0_IcEEEEEEE8max_sizeB7v160006Ev, symObjAddr: 0x4ACC, symBinAddr: 0x10000844C, symSize: 0x14 }
  - { offsetInCU: 0xFA2D, offset: 0xFA2D, size: 0x8, addend: 0x0, symName: __ZNKSt3__123__move_backward_trivialclB7v160006IPNS_4pairIiNS_12basic_stringIcNS_11char_traitsIcEENS_9allocatorIcEEEEEESA_Li0EEENS2_IPT_PT0_EESC_SC_SE_, symObjAddr: 0x4C6C, symBinAddr: 0x1000085EC, symSize: 0x48 }
  - { offsetInCU: 0xFA9F, offset: 0xFA9F, size: 0x8, addend: 0x0, symName: __ZNKSt3__16__lessImmEclB7v160006ERKmS3_, symObjAddr: 0x4DD4, symBinAddr: 0x100008754, symSize: 0x34 }
  - { offsetInCU: 0xFAE1, offset: 0xFAE1, size: 0x8, addend: 0x0, symName: __ZNSt3__114__split_bufferIPNS_4pairIiNS_12basic_stringIcNS_11char_traitsIcEENS_9allocatorIcEEEEEERNS5_IS9_EEEC2EmmSB_, symObjAddr: 0x4E08, symBinAddr: 0x100008788, symSize: 0xD4 }
  - { offsetInCU: 0xFB55, offset: 0xFB55, size: 0x8, addend: 0x0, symName: __ZNSt3__117__compressed_pairIPPNS_4pairIiNS_12basic_stringIcNS_11char_traitsIcEENS_9allocatorIcEEEEEERNS5_IS9_EEEC1B7v160006IDnSC_EEOT_OT0_, symObjAddr: 0x4EDC, symBinAddr: 0x10000885C, symSize: 0x3C }
  - { offsetInCU: 0xFBAD, offset: 0xFBAD, size: 0x8, addend: 0x0, symName: __ZNSt3__117__compressed_pairIPPNS_4pairIiNS_12basic_stringIcNS_11char_traitsIcEENS_9allocatorIcEEEEEERNS5_IS9_EEEC2B7v160006IDnSC_EEOT_OT0_, symObjAddr: 0x4F58, symBinAddr: 0x1000088D8, symSize: 0x48 }
  - { offsetInCU: 0xFC05, offset: 0xFC05, size: 0x8, addend: 0x0, symName: __ZNSt3__122__compressed_pair_elemIRNS_9allocatorIPNS_4pairIiNS_12basic_stringIcNS_11char_traitsIcEENS1_IcEEEEEEEELi1ELb0EEC2B7v160006ISB_vEEOT_, symObjAddr: 0x4FA0, symBinAddr: 0x100008920, symSize: 0x20 }
  - { offsetInCU: 0xFC47, offset: 0xFC47, size: 0x8, addend: 0x0, symName: __ZNSt3__19allocatorIPNS_4pairIiNS_12basic_stringIcNS_11char_traitsIcEENS0_IcEEEEEEE8allocateB7v160006Em, symObjAddr: 0x4FC0, symBinAddr: 0x100008940, symSize: 0x84 }
  - { offsetInCU: 0xFC85, offset: 0xFC85, size: 0x8, addend: 0x0, symName: __ZNSt3__116allocator_traitsINS_9allocatorIPNS_4pairIiNS_12basic_stringIcNS_11char_traitsIcEENS1_IcEEEEEEEEE8max_sizeB7v160006ISA_vEEmRKSA_, symObjAddr: 0x5044, symBinAddr: 0x1000089C4, symSize: 0x24 }
  - { offsetInCU: 0xFCB3, offset: 0xFCB3, size: 0x8, addend: 0x0, symName: __ZNKSt3__19allocatorIPNS_4pairIiNS_12basic_stringIcNS_11char_traitsIcEENS0_IcEEEEEEE8max_sizeB7v160006Ev, symObjAddr: 0x5068, symBinAddr: 0x1000089E8, symSize: 0x14 }
  - { offsetInCU: 0xFCD9, offset: 0xFCD9, size: 0x8, addend: 0x0, symName: __ZNSt3__122__allocator_destructorINS_9allocatorINS_4pairIiNS_12basic_stringIcNS_11char_traitsIcEENS1_IcEEEEEEEEEC2B7v160006ERS9_m, symObjAddr: 0x507C, symBinAddr: 0x1000089FC, symSize: 0x2C }
  - { offsetInCU: 0xFD1F, offset: 0xFD1F, size: 0x8, addend: 0x0, symName: __ZNSt3__110unique_ptrIPNS_4pairIiNS_12basic_stringIcNS_11char_traitsIcEENS_9allocatorIcEEEEEENS_22__allocator_destructorINS5_IS8_EEEEEC2B7v160006ILb1EvEES9_NS_16__dependent_typeINS_27__unique_ptr_deleter_sfinaeISC_EEXT_EE20__good_rval_ref_typeE, symObjAddr: 0x50A8, symBinAddr: 0x100008A28, symSize: 0x5C }
  - { offsetInCU: 0xFD70, offset: 0xFD70, size: 0x8, addend: 0x0, symName: __ZNSt3__117__compressed_pairIPNS_4pairIiNS_12basic_stringIcNS_11char_traitsIcEENS_9allocatorIcEEEEEENS_22__allocator_destructorINS5_IS8_EEEEEC1B7v160006IRS9_SC_EEOT_OT0_, symObjAddr: 0x5104, symBinAddr: 0x100008A84, symSize: 0x3C }
  - { offsetInCU: 0xFDC8, offset: 0xFDC8, size: 0x8, addend: 0x0, symName: __ZNSt3__117__compressed_pairIPNS_4pairIiNS_12basic_stringIcNS_11char_traitsIcEENS_9allocatorIcEEEEEENS_22__allocator_destructorINS5_IS8_EEEEEC2B7v160006IRS9_SC_EEOT_OT0_, symObjAddr: 0x5140, symBinAddr: 0x100008AC0, symSize: 0x48 }
  - { offsetInCU: 0xFE20, offset: 0xFE20, size: 0x8, addend: 0x0, symName: __ZNSt3__122__compressed_pair_elemIPNS_4pairIiNS_12basic_stringIcNS_11char_traitsIcEENS_9allocatorIcEEEEEELi0ELb0EEC2B7v160006IRS9_vEEOT_, symObjAddr: 0x5188, symBinAddr: 0x100008B08, symSize: 0x24 }
  - { offsetInCU: 0xFE62, offset: 0xFE62, size: 0x8, addend: 0x0, symName: __ZNSt3__122__compressed_pair_elemINS_22__allocator_destructorINS_9allocatorINS_4pairIiNS_12basic_stringIcNS_11char_traitsIcEENS2_IcEEEEEEEEEELi1ELb0EEC2B7v160006ISB_vEEOT_, symObjAddr: 0x51AC, symBinAddr: 0x100008B2C, symSize: 0x24 }
  - { offsetInCU: 0xFEA4, offset: 0xFEA4, size: 0x8, addend: 0x0, symName: __ZNKSt3__117__compressed_pairIPNS_4pairIiNS_12basic_stringIcNS_11char_traitsIcEENS_9allocatorIcEEEEEENS_22__allocator_destructorINS5_IS8_EEEEE5firstB7v160006Ev, symObjAddr: 0x51D0, symBinAddr: 0x100008B50, symSize: 0x24 }
  - { offsetInCU: 0xFECA, offset: 0xFECA, size: 0x8, addend: 0x0, symName: __ZNKSt3__122__compressed_pair_elemIPNS_4pairIiNS_12basic_stringIcNS_11char_traitsIcEENS_9allocatorIcEEEEEELi0ELb0EE5__getB7v160006Ev, symObjAddr: 0x51F4, symBinAddr: 0x100008B74, symSize: 0x14 }
  - { offsetInCU: 0xFEF0, offset: 0xFEF0, size: 0x8, addend: 0x0, symName: __ZNSt3__117__compressed_pairIPNS_4pairIiNS_12basic_stringIcNS_11char_traitsIcEENS_9allocatorIcEEEEEENS_22__allocator_destructorINS5_IS8_EEEEE5firstB7v160006Ev, symObjAddr: 0x5208, symBinAddr: 0x100008B88, symSize: 0x24 }
  - { offsetInCU: 0xFF16, offset: 0xFF16, size: 0x8, addend: 0x0, symName: __ZNSt3__122__compressed_pair_elemIPNS_4pairIiNS_12basic_stringIcNS_11char_traitsIcEENS_9allocatorIcEEEEEELi0ELb0EE5__getB7v160006Ev, symObjAddr: 0x522C, symBinAddr: 0x100008BAC, symSize: 0x14 }
  - { offsetInCU: 0xFF3C, offset: 0xFF3C, size: 0x8, addend: 0x0, symName: __ZNSt3__117__compressed_pairIPPNS_4pairIiNS_12basic_stringIcNS_11char_traitsIcEENS_9allocatorIcEEEEEENS5_IS9_EEE5firstB7v160006Ev, symObjAddr: 0x5240, symBinAddr: 0x100008BC0, symSize: 0x24 }
  - { offsetInCU: 0xFF62, offset: 0xFF62, size: 0x8, addend: 0x0, symName: __ZNSt3__122__compressed_pair_elemIPPNS_4pairIiNS_12basic_stringIcNS_11char_traitsIcEENS_9allocatorIcEEEEEELi0ELb0EE5__getB7v160006Ev, symObjAddr: 0x5264, symBinAddr: 0x100008BE4, symSize: 0x14 }
  - { offsetInCU: 0xFF88, offset: 0xFF88, size: 0x8, addend: 0x0, symName: __ZNSt3__117__compressed_pairIPPNS_4pairIiNS_12basic_stringIcNS_11char_traitsIcEENS_9allocatorIcEEEEEERNS5_IS9_EEE5firstB7v160006Ev, symObjAddr: 0x5278, symBinAddr: 0x100008BF8, symSize: 0x24 }
  - { offsetInCU: 0xFFAE, offset: 0xFFAE, size: 0x8, addend: 0x0, symName: __ZNSt3__110unique_ptrIPNS_4pairIiNS_12basic_stringIcNS_11char_traitsIcEENS_9allocatorIcEEEEEENS_22__allocator_destructorINS5_IS8_EEEEED2B7v160006Ev, symObjAddr: 0x529C, symBinAddr: 0x100008C1C, symSize: 0x30 }
  - { offsetInCU: 0xFFD8, offset: 0xFFD8, size: 0x8, addend: 0x0, symName: __ZNSt3__110unique_ptrIPNS_4pairIiNS_12basic_stringIcNS_11char_traitsIcEENS_9allocatorIcEEEEEENS_22__allocator_destructorINS5_IS8_EEEEE5resetB7v160006ES9_, symObjAddr: 0x52CC, symBinAddr: 0x100008C4C, symSize: 0x78 }
  - { offsetInCU: 0x1001C, offset: 0x1001C, size: 0x8, addend: 0x0, symName: __ZNSt3__117__compressed_pairIPNS_4pairIiNS_12basic_stringIcNS_11char_traitsIcEENS_9allocatorIcEEEEEENS_22__allocator_destructorINS5_IS8_EEEEE6secondB7v160006Ev, symObjAddr: 0x5344, symBinAddr: 0x100008CC4, symSize: 0x28 }
  - { offsetInCU: 0x10042, offset: 0x10042, size: 0x8, addend: 0x0, symName: __ZNSt3__122__allocator_destructorINS_9allocatorINS_4pairIiNS_12basic_stringIcNS_11char_traitsIcEENS1_IcEEEEEEEEEclB7v160006EPS8_, symObjAddr: 0x536C, symBinAddr: 0x100008CEC, symSize: 0x34 }
  - { offsetInCU: 0x10076, offset: 0x10076, size: 0x8, addend: 0x0, symName: __ZNSt3__122__compressed_pair_elemINS_22__allocator_destructorINS_9allocatorINS_4pairIiNS_12basic_stringIcNS_11char_traitsIcEENS2_IcEEEEEEEEEELi1ELb0EE5__getB7v160006Ev, symObjAddr: 0x53A0, symBinAddr: 0x100008D20, symSize: 0x14 }
  - { offsetInCU: 0x1009C, offset: 0x1009C, size: 0x8, addend: 0x0, symName: __ZNSt3__116allocator_traitsINS_9allocatorINS_4pairIiNS_12basic_stringIcNS_11char_traitsIcEENS1_IcEEEEEEEEE10deallocateB7v160006ERS9_PS8_m, symObjAddr: 0x53B4, symBinAddr: 0x100008D34, symSize: 0x34 }
  - { offsetInCU: 0x100DE, offset: 0x100DE, size: 0x8, addend: 0x0, symName: __ZNSt3__19allocatorINS_4pairIiNS_12basic_stringIcNS_11char_traitsIcEENS0_IcEEEEEEE10deallocateB7v160006EPS7_m, symObjAddr: 0x53E8, symBinAddr: 0x100008D68, symSize: 0x70 }
  - { offsetInCU: 0x10120, offset: 0x10120, size: 0x8, addend: 0x0, symName: __ZNSt3__114__split_bufferIPNS_4pairIiNS_12basic_stringIcNS_11char_traitsIcEENS_9allocatorIcEEEEEERNS5_IS9_EEED2Ev, symObjAddr: 0x5458, symBinAddr: 0x100008DD8, symSize: 0x80 }
  - { offsetInCU: 0x1014C, offset: 0x1014C, size: 0x8, addend: 0x0, symName: __ZNSt3__114__split_bufferIPNS_4pairIiNS_12basic_stringIcNS_11char_traitsIcEENS_9allocatorIcEEEEEERNS5_IS9_EEE5clearB7v160006Ev, symObjAddr: 0x54D8, symBinAddr: 0x100008E58, symSize: 0x28 }
  - { offsetInCU: 0x10172, offset: 0x10172, size: 0x8, addend: 0x0, symName: __ZNKSt3__114__split_bufferIPNS_4pairIiNS_12basic_stringIcNS_11char_traitsIcEENS_9allocatorIcEEEEEERNS5_IS9_EEE8capacityB7v160006Ev, symObjAddr: 0x5500, symBinAddr: 0x100008E80, symSize: 0x40 }
  - { offsetInCU: 0x10198, offset: 0x10198, size: 0x8, addend: 0x0, symName: __ZNSt3__114__split_bufferIPNS_4pairIiNS_12basic_stringIcNS_11char_traitsIcEENS_9allocatorIcEEEEEERNS5_IS9_EEE17__destruct_at_endB7v160006EPS9_, symObjAddr: 0x5540, symBinAddr: 0x100008EC0, symSize: 0x2C }
  - { offsetInCU: 0x101CC, offset: 0x101CC, size: 0x8, addend: 0x0, symName: __ZNSt3__114__split_bufferIPNS_4pairIiNS_12basic_stringIcNS_11char_traitsIcEENS_9allocatorIcEEEEEERNS5_IS9_EEE17__destruct_at_endB7v160006EPS9_NS_17integral_constantIbLb0EEE, symObjAddr: 0x556C, symBinAddr: 0x100008EEC, symSize: 0x94 }
  - { offsetInCU: 0x1020C, offset: 0x1020C, size: 0x8, addend: 0x0, symName: __ZNKSt3__114__split_bufferIPNS_4pairIiNS_12basic_stringIcNS_11char_traitsIcEENS_9allocatorIcEEEEEERNS5_IS9_EEE9__end_capB7v160006Ev, symObjAddr: 0x5600, symBinAddr: 0x100008F80, symSize: 0x28 }
  - { offsetInCU: 0x10232, offset: 0x10232, size: 0x8, addend: 0x0, symName: __ZNKSt3__117__compressed_pairIPPNS_4pairIiNS_12basic_stringIcNS_11char_traitsIcEENS_9allocatorIcEEEEEERNS5_IS9_EEE5firstB7v160006Ev, symObjAddr: 0x5628, symBinAddr: 0x100008FA8, symSize: 0x24 }
  - { offsetInCU: 0x10258, offset: 0x10258, size: 0x8, addend: 0x0, symName: __ZNSt3__19allocatorINS_4pairIiNS_12basic_stringIcNS_11char_traitsIcEENS0_IcEEEEEEE9constructB7v160006IS7_JRKS7_EEEvPT_DpOT0_, symObjAddr: 0x564C, symBinAddr: 0x100008FCC, symSize: 0x30 }
  - { offsetInCU: 0x102AE, offset: 0x102AE, size: 0x8, addend: 0x0, symName: __ZNSt3__14pairIiNS_12basic_stringIcNS_11char_traitsIcEENS_9allocatorIcEEEEEC1ERKS7_, symObjAddr: 0x567C, symBinAddr: 0x100008FFC, symSize: 0x34 }
  - { offsetInCU: 0x102E2, offset: 0x102E2, size: 0x8, addend: 0x0, symName: __ZNSt3__14pairIiNS_12basic_stringIcNS_11char_traitsIcEENS_9allocatorIcEEEEEC2ERKS7_, symObjAddr: 0x56B0, symBinAddr: 0x100009030, symSize: 0x48 }
  - { offsetInCU: 0x10316, offset: 0x10316, size: 0x8, addend: 0x0, symName: __ZNKSt3__114__split_bufferIPNS_4pairIiNS_12basic_stringIcNS_11char_traitsIcEENS_9allocatorIcEEEEEENS5_IS9_EEE5emptyB7v160006Ev, symObjAddr: 0x56F8, symBinAddr: 0x100009078, symSize: 0x28 }
  - { offsetInCU: 0x1033C, offset: 0x1033C, size: 0x8, addend: 0x0, symName: __ZNSt3__116__deque_iteratorINS_4pairIiNS_12basic_stringIcNS_11char_traitsIcEENS_9allocatorIcEEEEEEPS8_RS8_PS9_lLl128EEC1B7v160006ESB_S9_, symObjAddr: 0x5720, symBinAddr: 0x1000090A0, symSize: 0x3C }
  - { offsetInCU: 0x10384, offset: 0x10384, size: 0x8, addend: 0x0, symName: __ZNSt3__116__deque_iteratorINS_4pairIiNS_12basic_stringIcNS_11char_traitsIcEENS_9allocatorIcEEEEEEPS8_RS8_PS9_lLl128EEC2B7v160006ESB_S9_, symObjAddr: 0x575C, symBinAddr: 0x1000090DC, symSize: 0x2C }
  - { offsetInCU: 0x103CC, offset: 0x103CC, size: 0x8, addend: 0x0, symName: __ZNSt3__117__compressed_pairImNS_9allocatorINS_4pairIiNS_12basic_stringIcNS_11char_traitsIcEENS1_IcEEEEEEEEE5firstB7v160006Ev, symObjAddr: 0x5788, symBinAddr: 0x100009108, symSize: 0x24 }
  - { offsetInCU: 0x103F2, offset: 0x103F2, size: 0x8, addend: 0x0, symName: __ZNSt3__122__compressed_pair_elemImLi0ELb0EE5__getB7v160006Ev, symObjAddr: 0x57AC, symBinAddr: 0x10000912C, symSize: 0x14 }
  - { offsetInCU: 0x10418, offset: 0x10418, size: 0x8, addend: 0x0, symName: __ZNSt3__14pairIiNS_12basic_stringIcNS_11char_traitsIcEENS_9allocatorIcEEEEEC1B7v160006ERKiRKS6_, symObjAddr: 0x57C0, symBinAddr: 0x100009140, symSize: 0x3C }
  - { offsetInCU: 0x1045E, offset: 0x1045E, size: 0x8, addend: 0x0, symName: __ZNSt3__14pairIiNS_12basic_stringIcNS_11char_traitsIcEENS_9allocatorIcEEEEEC2B7v160006ERKiRKS6_, symObjAddr: 0x57FC, symBinAddr: 0x10000917C, symSize: 0x48 }
  - { offsetInCU: 0x104A4, offset: 0x104A4, size: 0x8, addend: 0x0, symName: __ZNSt3__14pairIiNS_12basic_stringIcNS_11char_traitsIcEENS_9allocatorIcEEEEED2Ev, symObjAddr: 0x5844, symBinAddr: 0x1000091C4, symSize: 0x30 }
  - { offsetInCU: 0x104D0, offset: 0x104D0, size: 0x8, addend: 0x0, symName: __ZNKSt3__112basic_stringIcNS_11char_traitsIcEENS_9allocatorIcEEE6substrB7v160006Emm, symObjAddr: 0x5874, symBinAddr: 0x1000091F4, symSize: 0x68 }
  - { offsetInCU: 0x10514, offset: 0x10514, size: 0x8, addend: 0x0, symName: __ZNSt3__19allocatorIcEC1B7v160006Ev, symObjAddr: 0x591C, symBinAddr: 0x10000929C, symSize: 0x2C }
  - { offsetInCU: 0x1053E, offset: 0x1053E, size: 0x8, addend: 0x0, symName: __ZNSt3__19allocatorIcEC2B7v160006Ev, symObjAddr: 0x5948, symBinAddr: 0x1000092C8, symSize: 0x2C }
  - { offsetInCU: 0x10568, offset: 0x10568, size: 0x8, addend: 0x0, symName: __ZNSt3__116__non_trivial_ifILb1ENS_9allocatorIcEEEC2B7v160006Ev, symObjAddr: 0x5974, symBinAddr: 0x1000092F4, symSize: 0x14 }
  - { offsetInCU: 0x10592, offset: 0x10592, size: 0x8, addend: 0x0, symName: __ZNKSt3__15stackINS_4pairIiNS_12basic_stringIcNS_11char_traitsIcEENS_9allocatorIcEEEEEENS_5dequeIS8_NS5_IS8_EEEEE5emptyB7v160006Ev, symObjAddr: 0x5988, symBinAddr: 0x100009308, symSize: 0x28 }
  - { offsetInCU: 0x105B8, offset: 0x105B8, size: 0x8, addend: 0x0, symName: __ZNSt3__15stackINS_4pairIiNS_12basic_stringIcNS_11char_traitsIcEENS_9allocatorIcEEEEEENS_5dequeIS8_NS5_IS8_EEEEE3topB7v160006Ev, symObjAddr: 0x59B0, symBinAddr: 0x100009330, symSize: 0x24 }
  - { offsetInCU: 0x105DE, offset: 0x105DE, size: 0x8, addend: 0x0, symName: __ZNSt3__15stackINS_4pairIiNS_12basic_stringIcNS_11char_traitsIcEENS_9allocatorIcEEEEEENS_5dequeIS8_NS5_IS8_EEEEE3popB7v160006Ev, symObjAddr: 0x59D4, symBinAddr: 0x100009354, symSize: 0x24 }
  - { offsetInCU: 0x10604, offset: 0x10604, size: 0x8, addend: 0x0, symName: __ZNKSt3__112basic_stringIcNS_11char_traitsIcEENS_9allocatorIcEEE6lengthB7v160006Ev, symObjAddr: 0x59F8, symBinAddr: 0x100009378, symSize: 0x24 }
  - { offsetInCU: 0x1062A, offset: 0x1062A, size: 0x8, addend: 0x0, symName: __ZNKSt3__15dequeINS_4pairIiNS_12basic_stringIcNS_11char_traitsIcEENS_9allocatorIcEEEEEENS5_IS8_EEE5emptyB7v160006Ev, symObjAddr: 0x5B50, symBinAddr: 0x1000094D0, symSize: 0x30 }
  - { offsetInCU: 0x10650, offset: 0x10650, size: 0x8, addend: 0x0, symName: __ZNSt3__15dequeINS_4pairIiNS_12basic_stringIcNS_11char_traitsIcEENS_9allocatorIcEEEEEENS5_IS8_EEE4backEv, symObjAddr: 0x5B80, symBinAddr: 0x100009500, symSize: 0x68 }
  - { offsetInCU: 0x10687, offset: 0x10687, size: 0x8, addend: 0x0, symName: __ZNSt3__15dequeINS_4pairIiNS_12basic_stringIcNS_11char_traitsIcEENS_9allocatorIcEEEEEENS5_IS8_EEE8pop_backEv, symObjAddr: 0x5BE8, symBinAddr: 0x100009568, symSize: 0xB8 }
  - { offsetInCU: 0x106CD, offset: 0x106CD, size: 0x8, addend: 0x0, symName: __ZNSt3__116allocator_traitsINS_9allocatorINS_4pairIiNS_12basic_stringIcNS_11char_traitsIcEENS1_IcEEEEEEEEE7destroyB7v160006IS8_vEEvRS9_PT_, symObjAddr: 0x5CA0, symBinAddr: 0x100009620, symSize: 0x2C }
  - { offsetInCU: 0x1070A, offset: 0x1070A, size: 0x8, addend: 0x0, symName: __ZNSt3__15dequeINS_4pairIiNS_12basic_stringIcNS_11char_traitsIcEENS_9allocatorIcEEEEEENS5_IS8_EEE25__maybe_remove_back_spareB7v160006Eb, symObjAddr: 0x5CE0, symBinAddr: 0x100009660, symSize: 0xCC }
  - { offsetInCU: 0x1073F, offset: 0x1073F, size: 0x8, addend: 0x0, symName: __ZNSt3__19allocatorINS_4pairIiNS_12basic_stringIcNS_11char_traitsIcEENS0_IcEEEEEEE7destroyB7v160006EPS7_, symObjAddr: 0x5DAC, symBinAddr: 0x10000972C, symSize: 0x28 }
  - { offsetInCU: 0x10773, offset: 0x10773, size: 0x8, addend: 0x0, symName: __ZNKSt3__15dequeINS_4pairIiNS_12basic_stringIcNS_11char_traitsIcEENS_9allocatorIcEEEEEENS5_IS8_EEE19__back_spare_blocksB7v160006Ev, symObjAddr: 0x5DD4, symBinAddr: 0x100009754, symSize: 0x2C }
  - { offsetInCU: 0x10799, offset: 0x10799, size: 0x8, addend: 0x0, symName: __ZNSt3__114__split_bufferIPNS_4pairIiNS_12basic_stringIcNS_11char_traitsIcEENS_9allocatorIcEEEEEENS5_IS9_EEE4backB7v160006Ev, symObjAddr: 0x5E00, symBinAddr: 0x100009780, symSize: 0x1C }
  - { offsetInCU: 0x107BF, offset: 0x107BF, size: 0x8, addend: 0x0, symName: __ZNSt3__114__split_bufferIPNS_4pairIiNS_12basic_stringIcNS_11char_traitsIcEENS_9allocatorIcEEEEEENS5_IS9_EEE8pop_backB7v160006Ev, symObjAddr: 0x5E1C, symBinAddr: 0x10000979C, symSize: 0x2C }
  - { offsetInCU: 0x107E5, offset: 0x107E5, size: 0x8, addend: 0x0, symName: __ZNSt3__116allocator_traitsINS_9allocatorIcEEE37select_on_container_copy_constructionB7v160006IS2_vvEES2_RKS2_, symObjAddr: 0x5E48, symBinAddr: 0x1000097C8, symSize: 0x10 }
  - { offsetInCU: 0x10814, offset: 0x10814, size: 0x8, addend: 0x0, symName: __ZNKSt3__112basic_stringIcNS_11char_traitsIcEENS_9allocatorIcEEE13get_allocatorB7v160006Ev, symObjAddr: 0x5E58, symBinAddr: 0x1000097D8, symSize: 0x24 }
  - { offsetInCU: 0x1083A, offset: 0x1083A, size: 0x8, addend: 0x0, symName: __ZNSt3__112basic_stringIcNS_11char_traitsIcEENS_9allocatorIcEEEC1B7v160006ENS_24__uninitialized_size_tagEmRKS4_, symObjAddr: 0x5E7C, symBinAddr: 0x1000097FC, symSize: 0x3C }
  - { offsetInCU: 0x1088E, offset: 0x1088E, size: 0x8, addend: 0x0, symName: __ZNSt3__111char_traitsIcE4copyEPcPKcm, symObjAddr: 0x5EB8, symBinAddr: 0x100009838, symSize: 0x80 }
  - { offsetInCU: 0x108CD, offset: 0x108CD, size: 0x8, addend: 0x0, symName: __ZNSt3__111char_traitsIcE6assignEPcmc, symObjAddr: 0x5F38, symBinAddr: 0x1000098B8, symSize: 0x58 }
  - { offsetInCU: 0x1090C, offset: 0x1090C, size: 0x8, addend: 0x0, symName: __ZNSt3__112basic_stringIcNS_11char_traitsIcEENS_9allocatorIcEEEC2B7v160006ENS_24__uninitialized_size_tagEmRKS4_, symObjAddr: 0x5F90, symBinAddr: 0x100009910, symSize: 0x118 }
  - { offsetInCU: 0x1098D, offset: 0x1098D, size: 0x8, addend: 0x0, symName: __ZNSt3__116allocator_traitsINS_9allocatorIcEEE8allocateB7v160006ERS2_m, symObjAddr: 0x60A8, symBinAddr: 0x100009A28, symSize: 0x2C }
  - { offsetInCU: 0x109F7, offset: 0x109F7, size: 0x8, addend: 0x0, symName: __ZNKSt3__114__copy_trivialclB7v160006IKccLi0EEENS_4pairIPT_PT0_EES5_S5_S7_, symObjAddr: 0x6304, symBinAddr: 0x100009C84, symSize: 0x48 }
  - { offsetInCU: 0x10A78, offset: 0x10A78, size: 0x8, addend: 0x0, symName: __ZNSt3__14pairIPKcS2_EC1B7v160006ERKS2_S5_, symObjAddr: 0x6480, symBinAddr: 0x100009E00, symSize: 0x3C }
  - { offsetInCU: 0x10ABE, offset: 0x10ABE, size: 0x8, addend: 0x0, symName: __ZNSt3__14pairIPKcS2_EC2B7v160006ERKS2_S5_, symObjAddr: 0x64BC, symBinAddr: 0x100009E3C, symSize: 0x34 }
  - { offsetInCU: 0x10B04, offset: 0x10B04, size: 0x8, addend: 0x0, symName: __ZNSt3__118__unwrap_iter_implIPKcLb1EE8__unwrapB7v160006ES2_, symObjAddr: 0x64F0, symBinAddr: 0x100009E70, symSize: 0x24 }
  - { offsetInCU: 0x10B27, offset: 0x10B27, size: 0x8, addend: 0x0, symName: __ZNSt3__14pairIPKcPcEC1B7v160006ERKS2_RKS3_, symObjAddr: 0x65C8, symBinAddr: 0x100009F48, symSize: 0x3C }
  - { offsetInCU: 0x10B6D, offset: 0x10B6D, size: 0x8, addend: 0x0, symName: __ZNSt3__14pairIPKcPcEC2B7v160006ERKS2_RKS3_, symObjAddr: 0x6604, symBinAddr: 0x100009F84, symSize: 0x34 }
  - { offsetInCU: 0x10BB3, offset: 0x10BB3, size: 0x8, addend: 0x0, symName: __ZNSt3__118__unwrap_iter_implIPcLb1EE8__unwrapB7v160006ES1_, symObjAddr: 0x6638, symBinAddr: 0x100009FB8, symSize: 0x24 }
  - { offsetInCU: 0x10BD6, offset: 0x10BD6, size: 0x8, addend: 0x0, symName: __ZNSt3__118__unwrap_iter_implIPKcLb1EE8__rewrapB7v160006ES2_S2_, symObjAddr: 0x66AC, symBinAddr: 0x10000A02C, symSize: 0x48 }
  - { offsetInCU: 0x10C07, offset: 0x10C07, size: 0x8, addend: 0x0, symName: __ZNSt3__118__unwrap_iter_implIPcLb1EE8__rewrapB7v160006ES1_S1_, symObjAddr: 0x66F4, symBinAddr: 0x10000A074, symSize: 0x48 }
  - { offsetInCU: 0x10C38, offset: 0x10C38, size: 0x8, addend: 0x0, symName: __ZN11CustomStackD2Ev, symObjAddr: 0x67F8, symBinAddr: 0x10000A178, symSize: 0x68 }
  - { offsetInCU: 0x10C64, offset: 0x10C64, size: 0x8, addend: 0x0, symName: __ZNSt3__15stackINS_4pairIiNS_12basic_stringIcNS_11char_traitsIcEENS_9allocatorIcEEEEEENS_5dequeIS8_NS5_IS8_EEEEED1Ev, symObjAddr: 0x6860, symBinAddr: 0x10000A1E0, symSize: 0x2C }
  - { offsetInCU: 0x10C90, offset: 0x10C90, size: 0x8, addend: 0x0, symName: __ZNSt3__15stackINS_4pairIiNS_12basic_stringIcNS_11char_traitsIcEENS_9allocatorIcEEEEEENS_5dequeIS8_NS5_IS8_EEEEED2Ev, symObjAddr: 0x688C, symBinAddr: 0x10000A20C, symSize: 0x2C }
  - { offsetInCU: 0x10CBC, offset: 0x10CBC, size: 0x8, addend: 0x0, symName: __ZNSt3__15dequeINS_4pairIiNS_12basic_stringIcNS_11char_traitsIcEENS_9allocatorIcEEEEEENS5_IS8_EEED1B7v160006Ev, symObjAddr: 0x68B8, symBinAddr: 0x10000A238, symSize: 0x2C }
  - { offsetInCU: 0x10CE6, offset: 0x10CE6, size: 0x8, addend: 0x0, symName: __ZNSt3__15dequeINS_4pairIiNS_12basic_stringIcNS_11char_traitsIcEENS_9allocatorIcEEEEEENS5_IS8_EEED2B7v160006Ev, symObjAddr: 0x68E4, symBinAddr: 0x10000A264, symSize: 0x9C }
  - { offsetInCU: 0x10D3D, offset: 0x10D3D, size: 0x8, addend: 0x0, symName: __ZNSt3__15dequeINS_4pairIiNS_12basic_stringIcNS_11char_traitsIcEENS_9allocatorIcEEEEEENS5_IS8_EEE5clearEv, symObjAddr: 0x6980, symBinAddr: 0x10000A300, symSize: 0x170 }
  - { offsetInCU: 0x10DA1, offset: 0x10DA1, size: 0x8, addend: 0x0, symName: __ZNSt3__15dequeINS_4pairIiNS_12basic_stringIcNS_11char_traitsIcEENS_9allocatorIcEEEEEENS5_IS8_EEE5beginB7v160006Ev, symObjAddr: 0x6AF0, symBinAddr: 0x10000A470, symSize: 0xA8 }
  - { offsetInCU: 0x10DD6, offset: 0x10DD6, size: 0x8, addend: 0x0, symName: __ZNSt3__116__deque_iteratorINS_4pairIiNS_12basic_stringIcNS_11char_traitsIcEENS_9allocatorIcEEEEEEPS8_RS8_PS9_lLl128EEppB7v160006Ev, symObjAddr: 0x6BCC, symBinAddr: 0x10000A54C, symSize: 0x70 }
  - { offsetInCU: 0x10DFC, offset: 0x10DFC, size: 0x8, addend: 0x0, symName: __ZNSt3__112basic_stringIcNS_11char_traitsIcEENS_9allocatorIcEEEC2B7v160006Ev, symObjAddr: 0x6C6C, symBinAddr: 0x10000A5EC, symSize: 0x44 }
  - { offsetInCU: 0x10E26, offset: 0x10E26, size: 0x8, addend: 0x0, symName: __ZNSt3__117__compressed_pairINS_12basic_stringIcNS_11char_traitsIcEENS_9allocatorIcEEE5__repES5_EC1B7v160006INS_18__default_init_tagESA_EEOT_OT0_, symObjAddr: 0x6CB0, symBinAddr: 0x10000A630, symSize: 0x3C }
  - { offsetInCU: 0x10E7E, offset: 0x10E7E, size: 0x8, addend: 0x0, symName: __ZNSt3__112basic_stringIcNS_11char_traitsIcEENS_9allocatorIcEEE14__default_initB7v160006Ev, symObjAddr: 0x6CEC, symBinAddr: 0x10000A66C, symSize: 0xB0 }
  - { offsetInCU: 0x10ED1, offset: 0x10ED1, size: 0x8, addend: 0x0, symName: __ZNSt3__117__compressed_pairINS_12basic_stringIcNS_11char_traitsIcEENS_9allocatorIcEEE5__repES5_EC2B7v160006INS_18__default_init_tagESA_EEOT_OT0_, symObjAddr: 0x6D9C, symBinAddr: 0x10000A71C, symSize: 0x3C }
  - { offsetInCU: 0x10F29, offset: 0x10F29, size: 0x8, addend: 0x0, symName: __ZNSt3__122__compressed_pair_elemINS_9allocatorIcEELi1ELb1EEC2B7v160006ENS_18__default_init_tagE, symObjAddr: 0x6DD8, symBinAddr: 0x10000A758, symSize: 0x2C }
  - { offsetInCU: 0x10FFF, offset: 0x10FFF, size: 0x8, addend: 0x0, symName: __ZNKSt3__113basic_istreamIcNS_11char_traitsIcEEE6sentrycvbB7v160006Ev, symObjAddr: 0x6E04, symBinAddr: 0x10000A784, symSize: 0x1C }
  - { offsetInCU: 0x11025, offset: 0x11025, size: 0x8, addend: 0x0, symName: __ZNSt3__112basic_stringIcNS_11char_traitsIcEENS_9allocatorIcEEE5clearB7v160006Ev, symObjAddr: 0x6E20, symBinAddr: 0x10000A7A0, symSize: 0x9C }
  - { offsetInCU: 0x1104D, offset: 0x1104D, size: 0x8, addend: 0x0, symName: __ZNKSt3__18ios_base5widthB7v160006Ev, symObjAddr: 0x6EBC, symBinAddr: 0x10000A83C, symSize: 0x18 }
  - { offsetInCU: 0x11075, offset: 0x11075, size: 0x8, addend: 0x0, symName: __ZNSt3__114numeric_limitsIlE3maxB7v160006Ev, symObjAddr: 0x6ED4, symBinAddr: 0x10000A854, symSize: 0x14 }
  - { offsetInCU: 0x11089, offset: 0x11089, size: 0x8, addend: 0x0, symName: __ZNKSt3__19basic_iosIcNS_11char_traitsIcEEE5rdbufB7v160006Ev, symObjAddr: 0x6F14, symBinAddr: 0x10000A894, symSize: 0x24 }
  - { offsetInCU: 0x110B1, offset: 0x110B1, size: 0x8, addend: 0x0, symName: __ZNSt3__115basic_streambufIcNS_11char_traitsIcEEE5sgetcB7v160006Ev, symObjAddr: 0x6F38, symBinAddr: 0x10000A8B8, symSize: 0x70 }
  - { offsetInCU: 0x110D7, offset: 0x110D7, size: 0x8, addend: 0x0, symName: __ZNSt3__111char_traitsIcE11eq_int_typeEii, symObjAddr: 0x6FA8, symBinAddr: 0x10000A928, symSize: 0x28 }
  - { offsetInCU: 0x11108, offset: 0x11108, size: 0x8, addend: 0x0, symName: __ZNSt3__111char_traitsIcE3eofEv, symObjAddr: 0x6FD0, symBinAddr: 0x10000A950, symSize: 0x8 }
  - { offsetInCU: 0x1111C, offset: 0x1111C, size: 0x8, addend: 0x0, symName: __ZNSt3__111char_traitsIcE12to_char_typeEi, symObjAddr: 0x6FD8, symBinAddr: 0x10000A958, symSize: 0x18 }
  - { offsetInCU: 0x1116C, offset: 0x1116C, size: 0x8, addend: 0x0, symName: __ZNKSt3__15ctypeIcE2isB7v160006Ejc, symObjAddr: 0x6FF0, symBinAddr: 0x10000A970, symSize: 0x7C }
  - { offsetInCU: 0x111B0, offset: 0x111B0, size: 0x8, addend: 0x0, symName: __ZNSt3__115basic_streambufIcNS_11char_traitsIcEEE6sbumpcB7v160006Ev, symObjAddr: 0x706C, symBinAddr: 0x10000A9EC, symSize: 0x78 }
  - { offsetInCU: 0x111D6, offset: 0x111D6, size: 0x8, addend: 0x0, symName: __ZNSt3__18ios_base5widthB7v160006El, symObjAddr: 0x70E4, symBinAddr: 0x10000AA64, symSize: 0x2C }
  - { offsetInCU: 0x1121C, offset: 0x1121C, size: 0x8, addend: 0x0, symName: __ZNSt3__18ios_base18__setstate_nothrowB7v160006Ej, symObjAddr: 0x7110, symBinAddr: 0x10000AA90, symSize: 0x64 }
  - { offsetInCU: 0x11251, offset: 0x11251, size: 0x8, addend: 0x0, symName: __ZNKSt3__19basic_iosIcNS_11char_traitsIcEEE10exceptionsB7v160006Ev, symObjAddr: 0x7174, symBinAddr: 0x10000AAF4, symSize: 0x24 }
  - { offsetInCU: 0x11277, offset: 0x11277, size: 0x8, addend: 0x0, symName: __ZNSt3__19basic_iosIcNS_11char_traitsIcEEE8setstateB7v160006Ej, symObjAddr: 0x7198, symBinAddr: 0x10000AB18, symSize: 0x2C }
  - { offsetInCU: 0x112AC, offset: 0x112AC, size: 0x8, addend: 0x0, symName: __ZNSt3__123__libcpp_numeric_limitsIlLb1EE3maxB7v160006Ev, symObjAddr: 0x71D4, symBinAddr: 0x10000AB54, symSize: 0x8 }
  - { offsetInCU: 0x112C0, offset: 0x112C0, size: 0x8, addend: 0x0, symName: __ZNKSt3__18ios_base5rdbufB7v160006Ev, symObjAddr: 0x71DC, symBinAddr: 0x10000AB5C, symSize: 0x18 }
  - { offsetInCU: 0x112E6, offset: 0x112E6, size: 0x8, addend: 0x0, symName: __ZNSt3__111char_traitsIcE11to_int_typeEc, symObjAddr: 0x71F4, symBinAddr: 0x10000AB74, symSize: 0x14 }
  - { offsetInCU: 0x11308, offset: 0x11308, size: 0x8, addend: 0x0, symName: __Z7isasciii, symObjAddr: 0x7208, symBinAddr: 0x10000AB88, symSize: 0x24 }
  - { offsetInCU: 0x11335, offset: 0x11335, size: 0x8, addend: 0x0, symName: __ZNKSt3__18ios_base10exceptionsB7v160006Ev, symObjAddr: 0x722C, symBinAddr: 0x10000ABAC, symSize: 0x18 }
  - { offsetInCU: 0x1135D, offset: 0x1135D, size: 0x8, addend: 0x0, symName: __ZNSt3__18ios_base8setstateB7v160006Ej, symObjAddr: 0x7244, symBinAddr: 0x10000ABC4, symSize: 0x34 }
  - { offsetInCU: 0x11394, offset: 0x11394, size: 0x8, addend: 0x0, symName: __ZNKSt3__19basic_iosIcNS_11char_traitsIcEEE4failB7v160006Ev, symObjAddr: 0x7278, symBinAddr: 0x10000ABF8, symSize: 0x28 }
  - { offsetInCU: 0x113BA, offset: 0x113BA, size: 0x8, addend: 0x0, symName: __ZNKSt3__18ios_base4failB7v160006Ev, symObjAddr: 0x72A0, symBinAddr: 0x10000AC20, symSize: 0x28 }
  - { offsetInCU: 0x11400, offset: 0x11400, size: 0x8, addend: 0x0, symName: __ZNKSt3__113basic_ostreamIcNS_11char_traitsIcEEE6sentrycvbB7v160006Ev, symObjAddr: 0x74BC, symBinAddr: 0x10000AE3C, symSize: 0x1C }
  - { offsetInCU: 0x11426, offset: 0x11426, size: 0x8, addend: 0x0, symName: __ZNSt3__119ostreambuf_iteratorIcNS_11char_traitsIcEEEC1B7v160006ERNS_13basic_ostreamIcS2_EE, symObjAddr: 0x7720, symBinAddr: 0x10000B0A0, symSize: 0x34 }
  - { offsetInCU: 0x1145E, offset: 0x1145E, size: 0x8, addend: 0x0, symName: __ZNKSt3__18ios_base5flagsB7v160006Ev, symObjAddr: 0x7754, symBinAddr: 0x10000B0D4, symSize: 0x18 }
  - { offsetInCU: 0x11486, offset: 0x11486, size: 0x8, addend: 0x0, symName: __ZNKSt3__19basic_iosIcNS_11char_traitsIcEEE4fillB7v160006Ev, symObjAddr: 0x776C, symBinAddr: 0x10000B0EC, symSize: 0x64 }
  - { offsetInCU: 0x114AE, offset: 0x114AE, size: 0x8, addend: 0x0, symName: __ZNKSt3__119ostreambuf_iteratorIcNS_11char_traitsIcEEE6failedB7v160006Ev, symObjAddr: 0x77D0, symBinAddr: 0x10000B150, symSize: 0x24 }
  - { offsetInCU: 0x114D4, offset: 0x114D4, size: 0x8, addend: 0x0, symName: __ZNSt3__115basic_streambufIcNS_11char_traitsIcEEE5sputnB7v160006EPKcl, symObjAddr: 0x77F4, symBinAddr: 0x10000B174, symSize: 0x3C }
  - { offsetInCU: 0x11516, offset: 0x11516, size: 0x8, addend: 0x0, symName: __ZNSt3__112basic_stringIcNS_11char_traitsIcEENS_9allocatorIcEEEC1B7v160006Emc, symObjAddr: 0x7830, symBinAddr: 0x10000B1B0, symSize: 0x3C }
  - { offsetInCU: 0x1155E, offset: 0x1155E, size: 0x8, addend: 0x0, symName: __ZNSt3__112basic_stringIcNS_11char_traitsIcEENS_9allocatorIcEEEC2B7v160006Emc, symObjAddr: 0x786C, symBinAddr: 0x10000B1EC, symSize: 0x54 }
  - { offsetInCU: 0x115A6, offset: 0x115A6, size: 0x8, addend: 0x0, symName: __ZNSt3__119ostreambuf_iteratorIcNS_11char_traitsIcEEEC2B7v160006ERNS_13basic_ostreamIcS2_EE, symObjAddr: 0x78C0, symBinAddr: 0x10000B240, symSize: 0x68 }
  - { offsetInCU: 0x115DE, offset: 0x115DE, size: 0x8, addend: 0x0, symName: __ZNKSt3__19basic_iosIcNS_11char_traitsIcEEE5widenB7v160006Ec, symObjAddr: 0x7928, symBinAddr: 0x10000B2A8, symSize: 0x8C }
  - { offsetInCU: 0x11615, offset: 0x11615, size: 0x8, addend: 0x0, symName: __ZNKSt3__15ctypeIcE5widenB7v160006Ec, symObjAddr: 0x79B4, symBinAddr: 0x10000B334, symSize: 0x38 }
...
